
code.elf:     file format elf32-littleriscv


Disassembly of section .text:

00000000 <reset_vec>:
       0:	0040006f          	j	4 <start>

00000004 <start>:
       4:	00004137          	lui	sp,0x4
       8:	00004517          	auipc	a0,0x4
       c:	c0c50513          	addi	a0,a0,-1012 # 3c14 <a.0>
      10:	00004597          	auipc	a1,0x4
      14:	c0258593          	addi	a1,a1,-1022 # 3c12 <_etext>
      18:	00004617          	auipc	a2,0x4
      1c:	c0060613          	addi	a2,a2,-1024 # 3c18 <udat0>
      20:	00c55c63          	bge	a0,a2,38 <end_init_data>

00000024 <loop_init_data>:
      24:	0005a683          	lw	a3,0(a1)
      28:	00d52023          	sw	a3,0(a0)
      2c:	00450513          	addi	a0,a0,4
      30:	00458593          	addi	a1,a1,4
      34:	fec548e3          	blt	a0,a2,24 <loop_init_data>

00000038 <end_init_data>:
      38:	00004517          	auipc	a0,0x4
      3c:	be050513          	addi	a0,a0,-1056 # 3c18 <udat0>
      40:	00004597          	auipc	a1,0x4
      44:	d0858593          	addi	a1,a1,-760 # 3d48 <_ebss>
      48:	00b55863          	bge	a0,a1,58 <end_init_bss>

0000004c <loop_init_bss>:
      4c:	00052023          	sw	zero,0(a0)
      50:	00450513          	addi	a0,a0,4
      54:	feb54ce3          	blt	a0,a1,4c <loop_init_bss>

00000058 <end_init_bss>:
      58:	181020ef          	jal	ra,29d8 <main>

0000005c <loop>:
      5c:	0000006f          	j	5c <loop>

00000060 <delay_loop>:
      60:	fff50513          	addi	a0,a0,-1
      64:	fe051ee3          	bnez	a0,60 <delay_loop>
      68:	00008067          	ret

0000006c <siguiente_token>:
      6c:	00050693          	mv	a3,a0
      70:	00052503          	lw	a0,0(a0)
      74:	02050c63          	beqz	a0,ac <siguiente_token+0x40>
      78:	00050713          	mv	a4,a0
      7c:	02c00593          	li	a1,44
      80:	00074603          	lbu	a2,0(a4)
      84:	00060e63          	beqz	a2,a0 <siguiente_token+0x34>
      88:	00170793          	addi	a5,a4,1
      8c:	00b61663          	bne	a2,a1,98 <siguiente_token+0x2c>
      90:	00070023          	sb	zero,0(a4)
      94:	0100006f          	j	a4 <siguiente_token+0x38>
      98:	00078713          	mv	a4,a5
      9c:	fe5ff06f          	j	80 <siguiente_token+0x14>
      a0:	00000793          	li	a5,0
      a4:	00f6a023          	sw	a5,0(a3)
      a8:	00008067          	ret
      ac:	00008067          	ret

000000b0 <irq2_handler>:
      b0:	ff010113          	addi	sp,sp,-16 # 3ff0 <_ebss+0x2a8>
      b4:	00e12223          	sw	a4,4(sp)
      b8:	00004737          	lui	a4,0x4
      bc:	00d12423          	sw	a3,8(sp)
      c0:	d4074683          	lbu	a3,-704(a4) # 3d40 <wrix0>
      c4:	00f12023          	sw	a5,0(sp)
      c8:	00c12623          	sw	a2,12(sp)
      cc:	00168793          	addi	a5,a3,1
      d0:	0ff7f793          	zext.b	a5,a5
      d4:	d4f70023          	sb	a5,-704(a4)
      d8:	e00007b7          	lui	a5,0xe0000
      dc:	0807c603          	lbu	a2,128(a5) # e0000080 <_ebss+0xdfffc338>
      e0:	000047b7          	lui	a5,0x4
      e4:	c1878793          	addi	a5,a5,-1000 # 3c18 <udat0>
      e8:	00d787b3          	add	a5,a5,a3
      ec:	00c78023          	sb	a2,0(a5)
      f0:	d4074783          	lbu	a5,-704(a4)
      f4:	00c12603          	lw	a2,12(sp)
      f8:	00812683          	lw	a3,8(sp)
      fc:	01f7f793          	andi	a5,a5,31
     100:	d4f70023          	sb	a5,-704(a4)
     104:	00412703          	lw	a4,4(sp)
     108:	00012783          	lw	a5,0(sp)
     10c:	01010113          	addi	sp,sp,16
     110:	30200073          	mret

00000114 <irq3_handler>:
     114:	ff410113          	addi	sp,sp,-12
     118:	00e12223          	sw	a4,4(sp)
     11c:	00004737          	lui	a4,0x4
     120:	00f12023          	sw	a5,0(sp)
     124:	c1674783          	lbu	a5,-1002(a4) # 3c16 <a.2>
     128:	00d12423          	sw	a3,8(sp)
     12c:	e00006b7          	lui	a3,0xe0000
     130:	08f68023          	sb	a5,128(a3) # e0000080 <_ebss+0xdfffc338>
     134:	00178793          	addi	a5,a5,1
     138:	0ff7f693          	zext.b	a3,a5
     13c:	01879793          	slli	a5,a5,0x18
     140:	4187d793          	srai	a5,a5,0x18
     144:	0007d463          	bgez	a5,14c <irq3_handler+0x38>
     148:	02000693          	li	a3,32
     14c:	c0d70b23          	sb	a3,-1002(a4)
     150:	00012783          	lw	a5,0(sp)
     154:	00812683          	lw	a3,8(sp)
     158:	00412703          	lw	a4,4(sp)
     15c:	00c10113          	addi	sp,sp,12
     160:	30200073          	mret

00000164 <irq4_handler>:
     164:	ff010113          	addi	sp,sp,-16
     168:	00e12223          	sw	a4,4(sp)
     16c:	00004737          	lui	a4,0x4
     170:	00d12423          	sw	a3,8(sp)
     174:	d3e74683          	lbu	a3,-706(a4) # 3d3e <wrix1>
     178:	00f12023          	sw	a5,0(sp)
     17c:	00c12623          	sw	a2,12(sp)
     180:	00168793          	addi	a5,a3,1
     184:	0ff7f793          	zext.b	a5,a5
     188:	d2f70f23          	sb	a5,-706(a4)
     18c:	e00007b7          	lui	a5,0xe0000
     190:	0907c603          	lbu	a2,144(a5) # e0000090 <_ebss+0xdfffc348>
     194:	000047b7          	lui	a5,0x4
     198:	c1878793          	addi	a5,a5,-1000 # 3c18 <udat0>
     19c:	00d787b3          	add	a5,a5,a3
     1a0:	02c78023          	sb	a2,32(a5)
     1a4:	d3e74783          	lbu	a5,-706(a4)
     1a8:	00c12603          	lw	a2,12(sp)
     1ac:	00812683          	lw	a3,8(sp)
     1b0:	01f7f793          	andi	a5,a5,31
     1b4:	d2f70f23          	sb	a5,-706(a4)
     1b8:	00412703          	lw	a4,4(sp)
     1bc:	00012783          	lw	a5,0(sp)
     1c0:	01010113          	addi	sp,sp,16
     1c4:	30200073          	mret

000001c8 <irq5_handler>:
     1c8:	ff410113          	addi	sp,sp,-12
     1cc:	00e12223          	sw	a4,4(sp)
     1d0:	00004737          	lui	a4,0x4
     1d4:	00f12023          	sw	a5,0(sp)
     1d8:	c1574783          	lbu	a5,-1003(a4) # 3c15 <a.1>
     1dc:	00d12423          	sw	a3,8(sp)
     1e0:	e00006b7          	lui	a3,0xe0000
     1e4:	08f68823          	sb	a5,144(a3) # e0000090 <_ebss+0xdfffc348>
     1e8:	00178793          	addi	a5,a5,1
     1ec:	0ff7f693          	zext.b	a3,a5
     1f0:	01879793          	slli	a5,a5,0x18
     1f4:	4187d793          	srai	a5,a5,0x18
     1f8:	0007d463          	bgez	a5,200 <irq5_handler+0x38>
     1fc:	02000693          	li	a3,32
     200:	c0d70aa3          	sb	a3,-1003(a4)
     204:	00012783          	lw	a5,0(sp)
     208:	00812683          	lw	a3,8(sp)
     20c:	00412703          	lw	a4,4(sp)
     210:	00c10113          	addi	sp,sp,12
     214:	30200073          	mret

00000218 <irq6_handler>:
     218:	ff010113          	addi	sp,sp,-16
     21c:	00e12223          	sw	a4,4(sp)
     220:	00004737          	lui	a4,0x4
     224:	00d12423          	sw	a3,8(sp)
     228:	d3c74683          	lbu	a3,-708(a4) # 3d3c <wrix2>
     22c:	00f12023          	sw	a5,0(sp)
     230:	00c12623          	sw	a2,12(sp)
     234:	00168793          	addi	a5,a3,1
     238:	0ff7f793          	zext.b	a5,a5
     23c:	d2f70e23          	sb	a5,-708(a4)
     240:	e00007b7          	lui	a5,0xe0000
     244:	0a07c603          	lbu	a2,160(a5) # e00000a0 <_ebss+0xdfffc358>
     248:	000047b7          	lui	a5,0x4
     24c:	c1878793          	addi	a5,a5,-1000 # 3c18 <udat0>
     250:	00d787b3          	add	a5,a5,a3
     254:	04c78023          	sb	a2,64(a5)
     258:	d3c74783          	lbu	a5,-708(a4)
     25c:	00c12603          	lw	a2,12(sp)
     260:	00812683          	lw	a3,8(sp)
     264:	01f7f793          	andi	a5,a5,31
     268:	d2f70e23          	sb	a5,-708(a4)
     26c:	00412703          	lw	a4,4(sp)
     270:	00012783          	lw	a5,0(sp)
     274:	01010113          	addi	sp,sp,16
     278:	30200073          	mret

0000027c <irq7_handler>:
     27c:	ff410113          	addi	sp,sp,-12
     280:	00e12223          	sw	a4,4(sp)
     284:	00004737          	lui	a4,0x4
     288:	00f12023          	sw	a5,0(sp)
     28c:	c1474783          	lbu	a5,-1004(a4) # 3c14 <a.0>
     290:	00d12423          	sw	a3,8(sp)
     294:	e00006b7          	lui	a3,0xe0000
     298:	0af68023          	sb	a5,160(a3) # e00000a0 <_ebss+0xdfffc358>
     29c:	00178793          	addi	a5,a5,1
     2a0:	0ff7f693          	zext.b	a3,a5
     2a4:	01879793          	slli	a5,a5,0x18
     2a8:	4187d793          	srai	a5,a5,0x18
     2ac:	0007d463          	bgez	a5,2b4 <irq7_handler+0x38>
     2b0:	02000693          	li	a3,32
     2b4:	c0d70a23          	sb	a3,-1004(a4)
     2b8:	00012783          	lw	a5,0(sp)
     2bc:	00812683          	lw	a3,8(sp)
     2c0:	00412703          	lw	a4,4(sp)
     2c4:	00c10113          	addi	sp,sp,12
     2c8:	30200073          	mret

000002cc <copia_strings.part.0>:
     2cc:	00000793          	li	a5,0
     2d0:	fff58593          	addi	a1,a1,-1
     2d4:	00f50733          	add	a4,a0,a5
     2d8:	00b7d863          	bge	a5,a1,2e8 <copia_strings.part.0+0x1c>
     2dc:	00f606b3          	add	a3,a2,a5
     2e0:	0006c683          	lbu	a3,0(a3)
     2e4:	00069663          	bnez	a3,2f0 <copia_strings.part.0+0x24>
     2e8:	00070023          	sb	zero,0(a4)
     2ec:	00008067          	ret
     2f0:	00d70023          	sb	a3,0(a4)
     2f4:	00178793          	addi	a5,a5,1
     2f8:	fddff06f          	j	2d4 <copia_strings.part.0+0x8>

000002fc <nmea_a_udeg>:
     2fc:	16060c63          	beqz	a2,474 <nmea_a_udeg+0x178>
     300:	00054703          	lbu	a4,0(a0)
     304:	00050793          	mv	a5,a0
     308:	00000513          	li	a0,0
     30c:	16070c63          	beqz	a4,484 <nmea_a_udeg+0x188>
     310:	fe810113          	addi	sp,sp,-24
     314:	00812823          	sw	s0,16(sp)
     318:	00058313          	mv	t1,a1
     31c:	00112a23          	sw	ra,20(sp)
     320:	00912623          	sw	s1,12(sp)
     324:	00060413          	mv	s0,a2
     328:	00000693          	li	a3,0
     32c:	02e00593          	li	a1,46
     330:	00900513          	li	a0,9
     334:	0007c703          	lbu	a4,0(a5)
     338:	12070a63          	beqz	a4,46c <nmea_a_udeg+0x170>
     33c:	00b71e63          	bne	a4,a1,358 <nmea_a_udeg+0x5c>
     340:	00178593          	addi	a1,a5,1
     344:	00100713          	li	a4,1
     348:	00578793          	addi	a5,a5,5
     34c:	00000493          	li	s1,0
     350:	00900293          	li	t0,9
     354:	04c0006f          	j	3a0 <nmea_a_udeg+0xa4>
     358:	fd070713          	addi	a4,a4,-48
     35c:	0ff77613          	zext.b	a2,a4
     360:	10c56e63          	bltu	a0,a2,47c <nmea_a_udeg+0x180>
     364:	00269613          	slli	a2,a3,0x2
     368:	00d606b3          	add	a3,a2,a3
     36c:	00169693          	slli	a3,a3,0x1
     370:	00d706b3          	add	a3,a4,a3
     374:	00178793          	addi	a5,a5,1
     378:	fbdff06f          	j	334 <nmea_a_udeg+0x38>
     37c:	02f58a63          	beq	a1,a5,3b0 <nmea_a_udeg+0xb4>
     380:	00249613          	slli	a2,s1,0x2
     384:	00960633          	add	a2,a2,s1
     388:	00161613          	slli	a2,a2,0x1
     38c:	00c504b3          	add	s1,a0,a2
     390:	00271613          	slli	a2,a4,0x2
     394:	00e60733          	add	a4,a2,a4
     398:	00171713          	slli	a4,a4,0x1
     39c:	00158593          	addi	a1,a1,1
     3a0:	0005c503          	lbu	a0,0(a1)
     3a4:	fd050513          	addi	a0,a0,-48
     3a8:	0ff57613          	zext.b	a2,a0
     3ac:	fcc2f8e3          	bgeu	t0,a2,37c <nmea_a_udeg+0x80>
     3b0:	000027b7          	lui	a5,0x2
     3b4:	70f78793          	addi	a5,a5,1807 # 270f <SX1262_Init+0x163>
     3b8:	08e7dc63          	bge	a5,a4,450 <nmea_a_udeg+0x154>
     3bc:	00068513          	mv	a0,a3
     3c0:	06400593          	li	a1,100
     3c4:	00612423          	sw	t1,8(sp)
     3c8:	00d12223          	sw	a3,4(sp)
     3cc:	558020ef          	jal	ra,2924 <__divsi3>
     3d0:	000f45b7          	lui	a1,0xf4
     3d4:	24058593          	addi	a1,a1,576 # f4240 <_ebss+0xf04f8>
     3d8:	528020ef          	jal	ra,2900 <__mulsi3>
     3dc:	00412683          	lw	a3,4(sp)
     3e0:	00a12023          	sw	a0,0(sp)
     3e4:	06400593          	li	a1,100
     3e8:	00068513          	mv	a0,a3
     3ec:	5bc020ef          	jal	ra,29a8 <__modsi3>
     3f0:	000025b7          	lui	a1,0x2
     3f4:	71058593          	addi	a1,a1,1808 # 2710 <SX1262_Init+0x164>
     3f8:	508020ef          	jal	ra,2900 <__mulsi3>
     3fc:	009504b3          	add	s1,a0,s1
     400:	00249513          	slli	a0,s1,0x2
     404:	00300593          	li	a1,3
     408:	00950533          	add	a0,a0,s1
     40c:	518020ef          	jal	ra,2924 <__divsi3>
     410:	00812303          	lw	t1,8(sp)
     414:	00012703          	lw	a4,0(sp)
     418:	05300793          	li	a5,83
     41c:	0db37313          	andi	t1,t1,219
     420:	00e50533          	add	a0,a0,a4
     424:	fff00593          	li	a1,-1
     428:	00f30463          	beq	t1,a5,430 <nmea_a_udeg+0x134>
     42c:	00100593          	li	a1,1
     430:	4d0020ef          	jal	ra,2900 <__mulsi3>
     434:	00a42023          	sw	a0,0(s0)
     438:	00100513          	li	a0,1
     43c:	01412083          	lw	ra,20(sp)
     440:	01012403          	lw	s0,16(sp)
     444:	00c12483          	lw	s1,12(sp)
     448:	01810113          	addi	sp,sp,24
     44c:	00008067          	ret
     450:	00249613          	slli	a2,s1,0x2
     454:	00960633          	add	a2,a2,s1
     458:	00161493          	slli	s1,a2,0x1
     45c:	00271613          	slli	a2,a4,0x2
     460:	00e60733          	add	a4,a2,a4
     464:	00171713          	slli	a4,a4,0x1
     468:	f51ff06f          	j	3b8 <nmea_a_udeg+0xbc>
     46c:	00000493          	li	s1,0
     470:	f4dff06f          	j	3bc <nmea_a_udeg+0xc0>
     474:	00000513          	li	a0,0
     478:	00008067          	ret
     47c:	00000513          	li	a0,0
     480:	fbdff06f          	j	43c <nmea_a_udeg+0x140>
     484:	00008067          	ret

00000488 <lee_nmea.constprop.0>:
     488:	e0000737          	lui	a4,0xe0000
     48c:	04072583          	lw	a1,64(a4) # e0000040 <_ebss+0xdfffc2f8>
     490:	0036f637          	lui	a2,0x36f
     494:	00050793          	mv	a5,a0
     498:	e8060613          	addi	a2,a2,-384 # 36ee80 <_ebss+0x36b138>
     49c:	09472683          	lw	a3,148(a4)
     4a0:	0016f693          	andi	a3,a3,1
     4a4:	06068663          	beqz	a3,510 <lee_nmea.constprop.0+0x88>
     4a8:	09074703          	lbu	a4,144(a4)
     4ac:	02400613          	li	a2,36
     4b0:	00000513          	li	a0,0
     4b4:	0ff77693          	zext.b	a3,a4
     4b8:	06c71463          	bne	a4,a2,520 <lee_nmea.constprop.0+0x98>
     4bc:	0036f5b7          	lui	a1,0x36f
     4c0:	00d78023          	sb	a3,0(a5)
     4c4:	00100713          	li	a4,1
     4c8:	e0000637          	lui	a2,0xe0000
     4cc:	e8058593          	addi	a1,a1,-384 # 36ee80 <_ebss+0x36b138>
     4d0:	00a00513          	li	a0,10
     4d4:	00d00313          	li	t1,13
     4d8:	04062283          	lw	t0,64(a2) # e0000040 <_ebss+0xdfffc2f8>
     4dc:	09462683          	lw	a3,148(a2)
     4e0:	0016f693          	andi	a3,a3,1
     4e4:	04068063          	beqz	a3,524 <lee_nmea.constprop.0+0x9c>
     4e8:	09064683          	lbu	a3,144(a2)
     4ec:	00170713          	addi	a4,a4,1
     4f0:	00e782b3          	add	t0,a5,a4
     4f4:	0ff6f693          	zext.b	a3,a3
     4f8:	fed28fa3          	sb	a3,-1(t0)
     4fc:	02a68a63          	beq	a3,a0,530 <lee_nmea.constprop.0+0xa8>
     500:	02668863          	beq	a3,t1,530 <lee_nmea.constprop.0+0xa8>
     504:	07f00693          	li	a3,127
     508:	fcd718e3          	bne	a4,a3,4d8 <lee_nmea.constprop.0+0x50>
     50c:	0240006f          	j	530 <lee_nmea.constprop.0+0xa8>
     510:	04072683          	lw	a3,64(a4)
     514:	40b686b3          	sub	a3,a3,a1
     518:	f8d672e3          	bgeu	a2,a3,49c <lee_nmea.constprop.0+0x14>
     51c:	00000513          	li	a0,0
     520:	00008067          	ret
     524:	04062683          	lw	a3,64(a2)
     528:	405686b3          	sub	a3,a3,t0
     52c:	fad5f8e3          	bgeu	a1,a3,4dc <lee_nmea.constprop.0+0x54>
     530:	00e787b3          	add	a5,a5,a4
     534:	00078023          	sb	zero,0(a5)
     538:	00100513          	li	a0,1
     53c:	00008067          	ret

00000540 <procesa_gga>:
     540:	fd410113          	addi	sp,sp,-44
     544:	02912023          	sw	s1,32(sp)
     548:	00078493          	mv	s1,a5
     54c:	000037b7          	lui	a5,0x3
     550:	00058313          	mv	t1,a1
     554:	00e12623          	sw	a4,12(sp)
     558:	02112423          	sw	ra,40(sp)
     55c:	02812223          	sw	s0,36(sp)
     560:	00060593          	mv	a1,a2
     564:	00d12423          	sw	a3,8(sp)
     568:	00050713          	mv	a4,a0
     56c:	11478793          	addi	a5,a5,276 # 3114 <main+0x73c>
     570:	0007c603          	lbu	a2,0(a5)
     574:	06060063          	beqz	a2,5d4 <procesa_gga+0x94>
     578:	00074683          	lbu	a3,0(a4)
     57c:	00068463          	beqz	a3,584 <procesa_gga+0x44>
     580:	00d60a63          	beq	a2,a3,594 <procesa_gga+0x54>
     584:	000037b7          	lui	a5,0x3
     588:	00050713          	mv	a4,a0
     58c:	11c78793          	addi	a5,a5,284 # 311c <main+0x744>
     590:	0180006f          	j	5a8 <procesa_gga+0x68>
     594:	00170713          	addi	a4,a4,1
     598:	00178793          	addi	a5,a5,1
     59c:	fd5ff06f          	j	570 <procesa_gga+0x30>
     5a0:	00170713          	addi	a4,a4,1
     5a4:	00178793          	addi	a5,a5,1
     5a8:	0007c603          	lbu	a2,0(a5)
     5ac:	02060463          	beqz	a2,5d4 <procesa_gga+0x94>
     5b0:	00074683          	lbu	a3,0(a4)
     5b4:	00068463          	beqz	a3,5bc <procesa_gga+0x7c>
     5b8:	fed604e3          	beq	a2,a3,5a0 <procesa_gga+0x60>
     5bc:	00000513          	li	a0,0
     5c0:	02812083          	lw	ra,40(sp)
     5c4:	02412403          	lw	s0,36(sp)
     5c8:	02012483          	lw	s1,32(sp)
     5cc:	02c10113          	addi	sp,sp,44
     5d0:	00008067          	ret
     5d4:	00a12e23          	sw	a0,28(sp)
     5d8:	01c10513          	addi	a0,sp,28
     5dc:	00b12c23          	sw	a1,24(sp)
     5e0:	00612a23          	sw	t1,20(sp)
     5e4:	a89ff0ef          	jal	ra,6c <siguiente_token>
     5e8:	01c10513          	addi	a0,sp,28
     5ec:	a81ff0ef          	jal	ra,6c <siguiente_token>
     5f0:	01c10513          	addi	a0,sp,28
     5f4:	a79ff0ef          	jal	ra,6c <siguiente_token>
     5f8:	00a12823          	sw	a0,16(sp)
     5fc:	01c10513          	addi	a0,sp,28
     600:	a6dff0ef          	jal	ra,6c <siguiente_token>
     604:	00a12023          	sw	a0,0(sp)
     608:	01c10513          	addi	a0,sp,28
     60c:	a61ff0ef          	jal	ra,6c <siguiente_token>
     610:	00a12223          	sw	a0,4(sp)
     614:	01c10513          	addi	a0,sp,28
     618:	a55ff0ef          	jal	ra,6c <siguiente_token>
     61c:	01012603          	lw	a2,16(sp)
     620:	00050413          	mv	s0,a0
     624:	f8060ce3          	beqz	a2,5bc <procesa_gga+0x7c>
     628:	00012783          	lw	a5,0(sp)
     62c:	f80788e3          	beqz	a5,5bc <procesa_gga+0x7c>
     630:	00412783          	lw	a5,4(sp)
     634:	f80784e3          	beqz	a5,5bc <procesa_gga+0x7c>
     638:	f80502e3          	beqz	a0,5bc <procesa_gga+0x7c>
     63c:	01412303          	lw	t1,20(sp)
     640:	00030a63          	beqz	t1,654 <procesa_gga+0x114>
     644:	01812583          	lw	a1,24(sp)
     648:	00b05663          	blez	a1,654 <procesa_gga+0x114>
     64c:	00030513          	mv	a0,t1
     650:	c7dff0ef          	jal	ra,2cc <copia_strings.part.0>
     654:	00812783          	lw	a5,8(sp)
     658:	00078e63          	beqz	a5,674 <procesa_gga+0x134>
     65c:	00c12783          	lw	a5,12(sp)
     660:	00f05a63          	blez	a5,674 <procesa_gga+0x134>
     664:	00412603          	lw	a2,4(sp)
     668:	00812503          	lw	a0,8(sp)
     66c:	00078593          	mv	a1,a5
     670:	c5dff0ef          	jal	ra,2cc <copia_strings.part.0>
     674:	00048863          	beqz	s1,684 <procesa_gga+0x144>
     678:	00012783          	lw	a5,0(sp)
     67c:	0007c783          	lbu	a5,0(a5)
     680:	00f48023          	sb	a5,0(s1)
     684:	02c12783          	lw	a5,44(sp)
     688:	00079663          	bnez	a5,694 <procesa_gga+0x154>
     68c:	00100513          	li	a0,1
     690:	f31ff06f          	j	5c0 <procesa_gga+0x80>
     694:	00044783          	lbu	a5,0(s0)
     698:	02c12703          	lw	a4,44(sp)
     69c:	00f70023          	sb	a5,0(a4)
     6a0:	fedff06f          	j	68c <procesa_gga+0x14c>

000006a4 <_putch>:
     6a4:	e0000737          	lui	a4,0xe0000
     6a8:	08472783          	lw	a5,132(a4) # e0000084 <_ebss+0xdfffc33c>
     6ac:	0027f793          	andi	a5,a5,2
     6b0:	fe078ce3          	beqz	a5,6a8 <_putch+0x4>
     6b4:	0ff57513          	zext.b	a0,a0
     6b8:	08a70023          	sb	a0,128(a4)
     6bc:	00008067          	ret

000006c0 <printchar>:
     6c0:	00050793          	mv	a5,a0
     6c4:	00058513          	mv	a0,a1
     6c8:	00078e63          	beqz	a5,6e4 <printchar+0x24>
     6cc:	0007a703          	lw	a4,0(a5)
     6d0:	00b70023          	sb	a1,0(a4)
     6d4:	0007a703          	lw	a4,0(a5)
     6d8:	00170713          	addi	a4,a4,1
     6dc:	00e7a023          	sw	a4,0(a5)
     6e0:	00008067          	ret
     6e4:	fc1ff06f          	j	6a4 <_putch>

000006e8 <prints>:
     6e8:	fe410113          	addi	sp,sp,-28
     6ec:	00912823          	sw	s1,16(sp)
     6f0:	00112c23          	sw	ra,24(sp)
     6f4:	00812a23          	sw	s0,20(sp)
     6f8:	00a12223          	sw	a0,4(sp)
     6fc:	00058493          	mv	s1,a1
     700:	02000793          	li	a5,32
     704:	02c05c63          	blez	a2,73c <prints+0x54>
     708:	00000793          	li	a5,0
     70c:	0080006f          	j	714 <prints+0x2c>
     710:	00178793          	addi	a5,a5,1
     714:	00f48733          	add	a4,s1,a5
     718:	00074703          	lbu	a4,0(a4)
     71c:	fe071ae3          	bnez	a4,710 <prints+0x28>
     720:	02c7da63          	bge	a5,a2,754 <prints+0x6c>
     724:	40f60633          	sub	a2,a2,a5
     728:	02000713          	li	a4,32
     72c:	0026f793          	andi	a5,a3,2
     730:	00e12023          	sw	a4,0(sp)
     734:	00078663          	beqz	a5,740 <prints+0x58>
     738:	03000793          	li	a5,48
     73c:	00f12023          	sw	a5,0(sp)
     740:	0016f693          	andi	a3,a3,1
     744:	00000793          	li	a5,0
     748:	04069063          	bnez	a3,788 <prints+0xa0>
     74c:	00060413          	mv	s0,a2
     750:	0240006f          	j	774 <prints+0x8c>
     754:	00000613          	li	a2,0
     758:	fd1ff06f          	j	728 <prints+0x40>
     75c:	00012583          	lw	a1,0(sp)
     760:	00412503          	lw	a0,4(sp)
     764:	00c12423          	sw	a2,8(sp)
     768:	fff40413          	addi	s0,s0,-1
     76c:	f55ff0ef          	jal	ra,6c0 <printchar>
     770:	00812603          	lw	a2,8(sp)
     774:	fe8044e3          	bgtz	s0,75c <prints+0x74>
     778:	00060793          	mv	a5,a2
     77c:	00065463          	bgez	a2,784 <prints+0x9c>
     780:	00000793          	li	a5,0
     784:	40f60633          	sub	a2,a2,a5
     788:	00078413          	mv	s0,a5
     78c:	0200006f          	j	7ac <prints+0xc4>
     790:	00412503          	lw	a0,4(sp)
     794:	00c12623          	sw	a2,12(sp)
     798:	00f12423          	sw	a5,8(sp)
     79c:	f25ff0ef          	jal	ra,6c0 <printchar>
     7a0:	00812783          	lw	a5,8(sp)
     7a4:	00c12603          	lw	a2,12(sp)
     7a8:	00140413          	addi	s0,s0,1
     7ac:	40f406b3          	sub	a3,s0,a5
     7b0:	00d486b3          	add	a3,s1,a3
     7b4:	0006c583          	lbu	a1,0(a3)
     7b8:	fc059ce3          	bnez	a1,790 <prints+0xa8>
     7bc:	00060493          	mv	s1,a2
     7c0:	02904263          	bgtz	s1,7e4 <prints+0xfc>
     7c4:	00065463          	bgez	a2,7cc <prints+0xe4>
     7c8:	00000613          	li	a2,0
     7cc:	01812083          	lw	ra,24(sp)
     7d0:	00860533          	add	a0,a2,s0
     7d4:	01412403          	lw	s0,20(sp)
     7d8:	01012483          	lw	s1,16(sp)
     7dc:	01c10113          	addi	sp,sp,28
     7e0:	00008067          	ret
     7e4:	00012583          	lw	a1,0(sp)
     7e8:	00412503          	lw	a0,4(sp)
     7ec:	00c12423          	sw	a2,8(sp)
     7f0:	fff48493          	addi	s1,s1,-1
     7f4:	ecdff0ef          	jal	ra,6c0 <printchar>
     7f8:	00812603          	lw	a2,8(sp)
     7fc:	fc5ff06f          	j	7c0 <prints+0xd8>

00000800 <printi>:
     800:	fcc10113          	addi	sp,sp,-52
     804:	02812623          	sw	s0,44(sp)
     808:	00058313          	mv	t1,a1
     80c:	02112823          	sw	ra,48(sp)
     810:	02912423          	sw	s1,40(sp)
     814:	00a12023          	sw	a0,0(sp)
     818:	00060593          	mv	a1,a2
     81c:	00068413          	mv	s0,a3
     820:	00070613          	mv	a2,a4
     824:	00078693          	mv	a3,a5
     828:	02031463          	bnez	t1,850 <printi+0x50>
     82c:	03000793          	li	a5,48
     830:	01c10593          	addi	a1,sp,28
     834:	00f11e23          	sh	a5,28(sp)
     838:	eb1ff0ef          	jal	ra,6e8 <prints>
     83c:	03012083          	lw	ra,48(sp)
     840:	02c12403          	lw	s0,44(sp)
     844:	02812483          	lw	s1,40(sp)
     848:	03410113          	addi	sp,sp,52
     84c:	00008067          	ret
     850:	00030793          	mv	a5,t1
     854:	00040a63          	beqz	s0,868 <printi+0x68>
     858:	00a00713          	li	a4,10
     85c:	0ee59263          	bne	a1,a4,940 <printi+0x140>
     860:	0e035063          	bgez	t1,940 <printi+0x140>
     864:	406007b3          	neg	a5,t1
     868:	03412703          	lw	a4,52(sp)
     86c:	020103a3          	sb	zero,39(sp)
     870:	02710313          	addi	t1,sp,39
     874:	fc670713          	addi	a4,a4,-58
     878:	00e12223          	sw	a4,4(sp)
     87c:	00078513          	mv	a0,a5
     880:	00d12c23          	sw	a3,24(sp)
     884:	00c12a23          	sw	a2,20(sp)
     888:	00612823          	sw	t1,16(sp)
     88c:	00b12623          	sw	a1,12(sp)
     890:	00f12423          	sw	a5,8(sp)
     894:	0e0020ef          	jal	ra,2974 <__umodsi3>
     898:	00900713          	li	a4,9
     89c:	00812783          	lw	a5,8(sp)
     8a0:	00c12583          	lw	a1,12(sp)
     8a4:	01012303          	lw	t1,16(sp)
     8a8:	01412603          	lw	a2,20(sp)
     8ac:	01812683          	lw	a3,24(sp)
     8b0:	00a77663          	bgeu	a4,a0,8bc <printi+0xbc>
     8b4:	00412703          	lw	a4,4(sp)
     8b8:	00e50533          	add	a0,a0,a4
     8bc:	03050513          	addi	a0,a0,48
     8c0:	fea30fa3          	sb	a0,-1(t1)
     8c4:	00078513          	mv	a0,a5
     8c8:	00d12c23          	sw	a3,24(sp)
     8cc:	00c12a23          	sw	a2,20(sp)
     8d0:	fff30493          	addi	s1,t1,-1
     8d4:	00612823          	sw	t1,16(sp)
     8d8:	00b12623          	sw	a1,12(sp)
     8dc:	00f12423          	sw	a5,8(sp)
     8e0:	04c020ef          	jal	ra,292c <__hidden___udivsi3>
     8e4:	00812783          	lw	a5,8(sp)
     8e8:	00c12583          	lw	a1,12(sp)
     8ec:	01012303          	lw	t1,16(sp)
     8f0:	01412603          	lw	a2,20(sp)
     8f4:	01812683          	lw	a3,24(sp)
     8f8:	04b7f863          	bgeu	a5,a1,948 <printi+0x148>
     8fc:	02040863          	beqz	s0,92c <printi+0x12c>
     900:	04060a63          	beqz	a2,954 <printi+0x154>
     904:	0026f793          	andi	a5,a3,2
     908:	04078663          	beqz	a5,954 <printi+0x154>
     90c:	00012503          	lw	a0,0(sp)
     910:	02d00593          	li	a1,45
     914:	00d12423          	sw	a3,8(sp)
     918:	00c12223          	sw	a2,4(sp)
     91c:	da5ff0ef          	jal	ra,6c0 <printchar>
     920:	00412603          	lw	a2,4(sp)
     924:	00812683          	lw	a3,8(sp)
     928:	fff60613          	addi	a2,a2,-1
     92c:	00012503          	lw	a0,0(sp)
     930:	00048593          	mv	a1,s1
     934:	db5ff0ef          	jal	ra,6e8 <prints>
     938:	00850533          	add	a0,a0,s0
     93c:	f01ff06f          	j	83c <printi+0x3c>
     940:	00000413          	li	s0,0
     944:	f25ff06f          	j	868 <printi+0x68>
     948:	00050793          	mv	a5,a0
     94c:	00048313          	mv	t1,s1
     950:	f2dff06f          	j	87c <printi+0x7c>
     954:	02d00793          	li	a5,45
     958:	fef48fa3          	sb	a5,-1(s1)
     95c:	00000413          	li	s0,0
     960:	ffe30493          	addi	s1,t1,-2
     964:	fc9ff06f          	j	92c <printi+0x12c>

00000968 <print>:
     968:	fe010113          	addi	sp,sp,-32
     96c:	00812c23          	sw	s0,24(sp)
     970:	00912a23          	sw	s1,20(sp)
     974:	00112e23          	sw	ra,28(sp)
     978:	00a12223          	sw	a0,4(sp)
     97c:	00058313          	mv	t1,a1
     980:	00060413          	mv	s0,a2
     984:	00000493          	li	s1,0
     988:	00034783          	lbu	a5,0(t1)
     98c:	02079663          	bnez	a5,9b8 <print+0x50>
     990:	00412783          	lw	a5,4(sp)
     994:	00078663          	beqz	a5,9a0 <print+0x38>
     998:	0007a783          	lw	a5,0(a5)
     99c:	00078023          	sb	zero,0(a5)
     9a0:	01c12083          	lw	ra,28(sp)
     9a4:	01812403          	lw	s0,24(sp)
     9a8:	00048513          	mv	a0,s1
     9ac:	01412483          	lw	s1,20(sp)
     9b0:	02010113          	addi	sp,sp,32
     9b4:	00008067          	ret
     9b8:	02500713          	li	a4,37
     9bc:	1ae79263          	bne	a5,a4,b60 <print+0x1f8>
     9c0:	00134683          	lbu	a3,1(t1)
     9c4:	fc0686e3          	beqz	a3,990 <print+0x28>
     9c8:	00130713          	addi	a4,t1,1
     9cc:	18f68863          	beq	a3,a5,b5c <print+0x1f4>
     9d0:	02d00613          	li	a2,45
     9d4:	00000793          	li	a5,0
     9d8:	00c69663          	bne	a3,a2,9e4 <print+0x7c>
     9dc:	00230713          	addi	a4,t1,2
     9e0:	00100793          	li	a5,1
     9e4:	00070313          	mv	t1,a4
     9e8:	03000713          	li	a4,48
     9ec:	00034683          	lbu	a3,0(t1)
     9f0:	00130613          	addi	a2,t1,1
     9f4:	04e68c63          	beq	a3,a4,a4c <print+0xe4>
     9f8:	00000713          	li	a4,0
     9fc:	00900593          	li	a1,9
     a00:	00034683          	lbu	a3,0(t1)
     a04:	00130513          	addi	a0,t1,1
     a08:	fd068613          	addi	a2,a3,-48
     a0c:	0ff67393          	zext.b	t2,a2
     a10:	0475f463          	bgeu	a1,t2,a58 <print+0xf0>
     a14:	07300613          	li	a2,115
     a18:	04c69c63          	bne	a3,a2,a70 <print+0x108>
     a1c:	00042583          	lw	a1,0(s0)
     a20:	00440393          	addi	t2,s0,4
     a24:	00059663          	bnez	a1,a30 <print+0xc8>
     a28:	000035b7          	lui	a1,0x3
     a2c:	12458593          	addi	a1,a1,292 # 3124 <main+0x74c>
     a30:	00612623          	sw	t1,12(sp)
     a34:	00712423          	sw	t2,8(sp)
     a38:	00078693          	mv	a3,a5
     a3c:	00070613          	mv	a2,a4
     a40:	00412503          	lw	a0,4(sp)
     a44:	ca5ff0ef          	jal	ra,6e8 <prints>
     a48:	0580006f          	j	aa0 <print+0x138>
     a4c:	0027e793          	ori	a5,a5,2
     a50:	00060313          	mv	t1,a2
     a54:	f99ff06f          	j	9ec <print+0x84>
     a58:	00271693          	slli	a3,a4,0x2
     a5c:	00e686b3          	add	a3,a3,a4
     a60:	00169693          	slli	a3,a3,0x1
     a64:	00d60733          	add	a4,a2,a3
     a68:	00050313          	mv	t1,a0
     a6c:	f95ff06f          	j	a00 <print+0x98>
     a70:	06400613          	li	a2,100
     a74:	04c69263          	bne	a3,a2,ab8 <print+0x150>
     a78:	06100693          	li	a3,97
     a7c:	00440393          	addi	t2,s0,4
     a80:	00042583          	lw	a1,0(s0)
     a84:	00612623          	sw	t1,12(sp)
     a88:	00d12023          	sw	a3,0(sp)
     a8c:	00712423          	sw	t2,8(sp)
     a90:	00100693          	li	a3,1
     a94:	00a00613          	li	a2,10
     a98:	00412503          	lw	a0,4(sp)
     a9c:	d65ff0ef          	jal	ra,800 <printi>
     aa0:	00812383          	lw	t2,8(sp)
     aa4:	00c12303          	lw	t1,12(sp)
     aa8:	00a484b3          	add	s1,s1,a0
     aac:	00038413          	mv	s0,t2
     ab0:	00130313          	addi	t1,t1,1
     ab4:	ed5ff06f          	j	988 <print+0x20>
     ab8:	07800613          	li	a2,120
     abc:	02c69463          	bne	a3,a2,ae4 <print+0x17c>
     ac0:	00042583          	lw	a1,0(s0)
     ac4:	00440393          	addi	t2,s0,4
     ac8:	00612623          	sw	t1,12(sp)
     acc:	00712423          	sw	t2,8(sp)
     ad0:	06100693          	li	a3,97
     ad4:	00d12023          	sw	a3,0(sp)
     ad8:	01000613          	li	a2,16
     adc:	00000693          	li	a3,0
     ae0:	fb9ff06f          	j	a98 <print+0x130>
     ae4:	05800613          	li	a2,88
     ae8:	00c69e63          	bne	a3,a2,b04 <print+0x19c>
     aec:	00440393          	addi	t2,s0,4
     af0:	00042583          	lw	a1,0(s0)
     af4:	00612623          	sw	t1,12(sp)
     af8:	00712423          	sw	t2,8(sp)
     afc:	04100693          	li	a3,65
     b00:	fd5ff06f          	j	ad4 <print+0x16c>
     b04:	07500613          	li	a2,117
     b08:	02c69263          	bne	a3,a2,b2c <print+0x1c4>
     b0c:	06100693          	li	a3,97
     b10:	00440393          	addi	t2,s0,4
     b14:	00042583          	lw	a1,0(s0)
     b18:	00612623          	sw	t1,12(sp)
     b1c:	00d12023          	sw	a3,0(sp)
     b20:	00712423          	sw	t2,8(sp)
     b24:	00000693          	li	a3,0
     b28:	f6dff06f          	j	a94 <print+0x12c>
     b2c:	06300613          	li	a2,99
     b30:	f8c690e3          	bne	a3,a2,ab0 <print+0x148>
     b34:	00042683          	lw	a3,0(s0)
     b38:	00440393          	addi	t2,s0,4
     b3c:	00612623          	sw	t1,12(sp)
     b40:	00d10823          	sb	a3,16(sp)
     b44:	00712423          	sw	t2,8(sp)
     b48:	000108a3          	sb	zero,17(sp)
     b4c:	00078693          	mv	a3,a5
     b50:	00070613          	mv	a2,a4
     b54:	01010593          	addi	a1,sp,16
     b58:	ee9ff06f          	j	a40 <print+0xd8>
     b5c:	00070313          	mv	t1,a4
     b60:	00034583          	lbu	a1,0(t1)
     b64:	00412503          	lw	a0,4(sp)
     b68:	00612423          	sw	t1,8(sp)
     b6c:	00148493          	addi	s1,s1,1
     b70:	b51ff0ef          	jal	ra,6c0 <printchar>
     b74:	00812303          	lw	t1,8(sp)
     b78:	f39ff06f          	j	ab0 <print+0x148>

00000b7c <_puts>:
     b7c:	ff410113          	addi	sp,sp,-12
     b80:	00812223          	sw	s0,4(sp)
     b84:	00112423          	sw	ra,8(sp)
     b88:	00050413          	mv	s0,a0
     b8c:	00044503          	lbu	a0,0(s0)
     b90:	00051a63          	bnez	a0,ba4 <_puts+0x28>
     b94:	00812083          	lw	ra,8(sp)
     b98:	00412403          	lw	s0,4(sp)
     b9c:	00c10113          	addi	sp,sp,12
     ba0:	00008067          	ret
     ba4:	00140413          	addi	s0,s0,1
     ba8:	afdff0ef          	jal	ra,6a4 <_putch>
     bac:	fe1ff06f          	j	b8c <_puts+0x10>

00000bb0 <_getchUART0>:
     bb0:	00004737          	lui	a4,0x4
     bb4:	00004637          	lui	a2,0x4
     bb8:	d4174683          	lbu	a3,-703(a4) # 3d41 <rdix0>
     bbc:	d4064783          	lbu	a5,-704(a2) # 3d40 <wrix0>
     bc0:	fef68ce3          	beq	a3,a5,bb8 <_getchUART0+0x8>
     bc4:	d4174683          	lbu	a3,-703(a4)
     bc8:	00168793          	addi	a5,a3,1
     bcc:	0ff7f793          	zext.b	a5,a5
     bd0:	d4f700a3          	sb	a5,-703(a4)
     bd4:	000047b7          	lui	a5,0x4
     bd8:	c1878793          	addi	a5,a5,-1000 # 3c18 <udat0>
     bdc:	00d787b3          	add	a5,a5,a3
     be0:	d4174683          	lbu	a3,-703(a4)
     be4:	0007c503          	lbu	a0,0(a5)
     be8:	01f6f693          	andi	a3,a3,31
     bec:	d4d700a3          	sb	a3,-703(a4)
     bf0:	00008067          	ret

00000bf4 <_getchUART1>:
     bf4:	00004737          	lui	a4,0x4
     bf8:	00004637          	lui	a2,0x4
     bfc:	d3f74683          	lbu	a3,-705(a4) # 3d3f <rdix1>
     c00:	d3e64783          	lbu	a5,-706(a2) # 3d3e <wrix1>
     c04:	fef68ce3          	beq	a3,a5,bfc <_getchUART1+0x8>
     c08:	d3f74683          	lbu	a3,-705(a4)
     c0c:	00168793          	addi	a5,a3,1
     c10:	0ff7f793          	zext.b	a5,a5
     c14:	d2f70fa3          	sb	a5,-705(a4)
     c18:	000047b7          	lui	a5,0x4
     c1c:	c1878793          	addi	a5,a5,-1000 # 3c18 <udat0>
     c20:	00d787b3          	add	a5,a5,a3
     c24:	d3f74683          	lbu	a3,-705(a4)
     c28:	0207c503          	lbu	a0,32(a5)
     c2c:	01f6f693          	andi	a3,a3,31
     c30:	d2d70fa3          	sb	a3,-705(a4)
     c34:	00008067          	ret

00000c38 <_getchUART2>:
     c38:	00004737          	lui	a4,0x4
     c3c:	00004637          	lui	a2,0x4
     c40:	d3d74683          	lbu	a3,-707(a4) # 3d3d <rdix2>
     c44:	d3c64783          	lbu	a5,-708(a2) # 3d3c <wrix2>
     c48:	fef68ce3          	beq	a3,a5,c40 <_getchUART2+0x8>
     c4c:	d3d74683          	lbu	a3,-707(a4)
     c50:	00168793          	addi	a5,a3,1
     c54:	0ff7f793          	zext.b	a5,a5
     c58:	d2f70ea3          	sb	a5,-707(a4)
     c5c:	000047b7          	lui	a5,0x4
     c60:	c1878793          	addi	a5,a5,-1000 # 3c18 <udat0>
     c64:	00d787b3          	add	a5,a5,a3
     c68:	d3d74683          	lbu	a3,-707(a4)
     c6c:	0407c503          	lbu	a0,64(a5)
     c70:	01f6f693          	andi	a3,a3,31
     c74:	d2d70ea3          	sb	a3,-707(a4)
     c78:	00008067          	ret

00000c7c <memcpy>:
     c7c:	00000793          	li	a5,0
     c80:	00f61463          	bne	a2,a5,c88 <memcpy+0xc>
     c84:	00008067          	ret
     c88:	00f58733          	add	a4,a1,a5
     c8c:	00074683          	lbu	a3,0(a4)
     c90:	00f50733          	add	a4,a0,a5
     c94:	00178793          	addi	a5,a5,1
     c98:	00d70023          	sb	a3,0(a4)
     c9c:	fe5ff06f          	j	c80 <memcpy+0x4>

00000ca0 <_printf>:
     ca0:	fdc10113          	addi	sp,sp,-36
     ca4:	00b12823          	sw	a1,16(sp)
     ca8:	00c12a23          	sw	a2,20(sp)
     cac:	00050593          	mv	a1,a0
     cb0:	01010613          	addi	a2,sp,16
     cb4:	00000513          	li	a0,0
     cb8:	00112623          	sw	ra,12(sp)
     cbc:	00d12c23          	sw	a3,24(sp)
     cc0:	00e12e23          	sw	a4,28(sp)
     cc4:	02f12023          	sw	a5,32(sp)
     cc8:	00c12023          	sw	a2,0(sp)
     ccc:	c9dff0ef          	jal	ra,968 <print>
     cd0:	00c12083          	lw	ra,12(sp)
     cd4:	02410113          	addi	sp,sp,36
     cd8:	00008067          	ret

00000cdc <_sprintf>:
     cdc:	fdc10113          	addi	sp,sp,-36
     ce0:	00a12023          	sw	a0,0(sp)
     ce4:	00c12a23          	sw	a2,20(sp)
     ce8:	00010513          	mv	a0,sp
     cec:	01410613          	addi	a2,sp,20
     cf0:	00112823          	sw	ra,16(sp)
     cf4:	00d12c23          	sw	a3,24(sp)
     cf8:	00e12e23          	sw	a4,28(sp)
     cfc:	02f12023          	sw	a5,32(sp)
     d00:	00c12223          	sw	a2,4(sp)
     d04:	c65ff0ef          	jal	ra,968 <print>
     d08:	01012083          	lw	ra,16(sp)
     d0c:	02410113          	addi	sp,sp,36
     d10:	00008067          	ret

00000d14 <lee_gas>:
     d14:	000047b7          	lui	a5,0x4
     d18:	d407a223          	sw	zero,-700(a5) # 3d44 <estado>
     d1c:	e00007b7          	lui	a5,0xe0000
     d20:	0307a703          	lw	a4,48(a5) # e0000030 <_ebss+0xdfffc2e8>
     d24:	f1f77713          	andi	a4,a4,-225
     d28:	0c076713          	ori	a4,a4,192
     d2c:	02e7a823          	sw	a4,48(a5)
     d30:	0207a703          	lw	a4,32(a5)
     d34:	00276713          	ori	a4,a4,2
     d38:	02e7a023          	sw	a4,32(a5)
     d3c:	000f4737          	lui	a4,0xf4
     d40:	24070713          	addi	a4,a4,576 # f4240 <_ebss+0xf04f8>
     d44:	04e7a023          	sw	a4,64(a5)
     d48:	00008067          	ret

00000d4c <GPS_lee_latlon>:
     d4c:	ee010113          	addi	sp,sp,-288
     d50:	e00007b7          	lui	a5,0xe0000
     d54:	10912a23          	sw	s1,276(sp)
     d58:	0407a483          	lw	s1,64(a5) # e0000040 <_ebss+0xdfffc2f8>
     d5c:	10812c23          	sw	s0,280(sp)
     d60:	019c0437          	lui	s0,0x19c0
     d64:	10112e23          	sw	ra,284(sp)
     d68:	00a12223          	sw	a0,4(sp)
     d6c:	00b12423          	sw	a1,8(sp)
     d70:	00c12623          	sw	a2,12(sp)
     d74:	00d12823          	sw	a3,16(sp)
     d78:	cbf40413          	addi	s0,s0,-833 # 19bfcbf <_ebss+0x19bbf77>
     d7c:	e00007b7          	lui	a5,0xe0000
     d80:	0407a783          	lw	a5,64(a5) # e0000040 <_ebss+0xdfffc2f8>
     d84:	409787b3          	sub	a5,a5,s1
     d88:	00f47663          	bgeu	s0,a5,d94 <GPS_lee_latlon+0x48>
     d8c:	00000513          	li	a0,0
     d90:	0480006f          	j	dd8 <GPS_lee_latlon+0x8c>
     d94:	01410513          	addi	a0,sp,20
     d98:	ef0ff0ef          	jal	ra,488 <lee_nmea.constprop.0>
     d9c:	fe0500e3          	beqz	a0,d7c <GPS_lee_latlon+0x30>
     da0:	01410613          	addi	a2,sp,20
     da4:	08000593          	li	a1,128
     da8:	09410513          	addi	a0,sp,148
     dac:	d20ff0ef          	jal	ra,2cc <copia_strings.part.0>
     db0:	01012703          	lw	a4,16(sp)
     db4:	00c12683          	lw	a3,12(sp)
     db8:	00812603          	lw	a2,8(sp)
     dbc:	00412583          	lw	a1,4(sp)
     dc0:	00012023          	sw	zero,0(sp)
     dc4:	00000793          	li	a5,0
     dc8:	09410513          	addi	a0,sp,148
     dcc:	f74ff0ef          	jal	ra,540 <procesa_gga>
     dd0:	fa0506e3          	beqz	a0,d7c <GPS_lee_latlon+0x30>
     dd4:	00100513          	li	a0,1
     dd8:	11c12083          	lw	ra,284(sp)
     ddc:	11812403          	lw	s0,280(sp)
     de0:	11412483          	lw	s1,276(sp)
     de4:	12010113          	addi	sp,sp,288
     de8:	00008067          	ret

00000dec <GPS_lee_latlon_micro>:
     dec:	eb410113          	addi	sp,sp,-332
     df0:	04e00793          	li	a5,78
     df4:	00f10723          	sb	a5,14(sp)
     df8:	04500793          	li	a5,69
     dfc:	00f107a3          	sb	a5,15(sp)
     e00:	00012823          	sw	zero,16(sp)
     e04:	00012a23          	sw	zero,20(sp)
     e08:	00012c23          	sw	zero,24(sp)
     e0c:	00012e23          	sw	zero,28(sp)
     e10:	02012023          	sw	zero,32(sp)
     e14:	02012223          	sw	zero,36(sp)
     e18:	02012423          	sw	zero,40(sp)
     e1c:	02012623          	sw	zero,44(sp)
     e20:	02012823          	sw	zero,48(sp)
     e24:	02012a23          	sw	zero,52(sp)
     e28:	02012c23          	sw	zero,56(sp)
     e2c:	02012e23          	sw	zero,60(sp)
     e30:	e00007b7          	lui	a5,0xe0000
     e34:	14912023          	sw	s1,320(sp)
     e38:	0407a483          	lw	s1,64(a5) # e0000040 <_ebss+0xdfffc2f8>
     e3c:	14812223          	sw	s0,324(sp)
     e40:	019c0437          	lui	s0,0x19c0
     e44:	14112423          	sw	ra,328(sp)
     e48:	00a12223          	sw	a0,4(sp)
     e4c:	00b12423          	sw	a1,8(sp)
     e50:	cbf40413          	addi	s0,s0,-833 # 19bfcbf <_ebss+0x19bbf77>
     e54:	e00007b7          	lui	a5,0xe0000
     e58:	0407a783          	lw	a5,64(a5) # e0000040 <_ebss+0xdfffc2f8>
     e5c:	409787b3          	sub	a5,a5,s1
     e60:	00f47663          	bgeu	s0,a5,e6c <GPS_lee_latlon_micro+0x80>
     e64:	00000513          	li	a0,0
     e68:	0740006f          	j	edc <GPS_lee_latlon_micro+0xf0>
     e6c:	04010513          	addi	a0,sp,64
     e70:	e18ff0ef          	jal	ra,488 <lee_nmea.constprop.0>
     e74:	fe0500e3          	beqz	a0,e54 <GPS_lee_latlon_micro+0x68>
     e78:	04010613          	addi	a2,sp,64
     e7c:	08000593          	li	a1,128
     e80:	0c010513          	addi	a0,sp,192
     e84:	c48ff0ef          	jal	ra,2cc <copia_strings.part.0>
     e88:	00f10793          	addi	a5,sp,15
     e8c:	00f12023          	sw	a5,0(sp)
     e90:	01800713          	li	a4,24
     e94:	00e10793          	addi	a5,sp,14
     e98:	02810693          	addi	a3,sp,40
     e9c:	01800613          	li	a2,24
     ea0:	01010593          	addi	a1,sp,16
     ea4:	0c010513          	addi	a0,sp,192
     ea8:	e98ff0ef          	jal	ra,540 <procesa_gga>
     eac:	fa0504e3          	beqz	a0,e54 <GPS_lee_latlon_micro+0x68>
     eb0:	00412603          	lw	a2,4(sp)
     eb4:	00e14583          	lbu	a1,14(sp)
     eb8:	01010513          	addi	a0,sp,16
     ebc:	c40ff0ef          	jal	ra,2fc <nmea_a_udeg>
     ec0:	f8050ae3          	beqz	a0,e54 <GPS_lee_latlon_micro+0x68>
     ec4:	00812603          	lw	a2,8(sp)
     ec8:	00f14583          	lbu	a1,15(sp)
     ecc:	02810513          	addi	a0,sp,40
     ed0:	c2cff0ef          	jal	ra,2fc <nmea_a_udeg>
     ed4:	f80500e3          	beqz	a0,e54 <GPS_lee_latlon_micro+0x68>
     ed8:	00100513          	li	a0,1
     edc:	14812083          	lw	ra,328(sp)
     ee0:	14412403          	lw	s0,324(sp)
     ee4:	14012483          	lw	s1,320(sp)
     ee8:	14c10113          	addi	sp,sp,332
     eec:	00008067          	ret

00000ef0 <lee_GPS>:
     ef0:	eac10113          	addi	sp,sp,-340
     ef4:	03f00793          	li	a5,63
     ef8:	00f10723          	sb	a5,14(sp)
     efc:	00f107a3          	sb	a5,15(sp)
     f00:	00012c23          	sw	zero,24(sp)
     f04:	00012e23          	sw	zero,28(sp)
     f08:	02012023          	sw	zero,32(sp)
     f0c:	02012223          	sw	zero,36(sp)
     f10:	02012423          	sw	zero,40(sp)
     f14:	02012623          	sw	zero,44(sp)
     f18:	02012823          	sw	zero,48(sp)
     f1c:	02012a23          	sw	zero,52(sp)
     f20:	02012c23          	sw	zero,56(sp)
     f24:	02012e23          	sw	zero,60(sp)
     f28:	04012023          	sw	zero,64(sp)
     f2c:	04012223          	sw	zero,68(sp)
     f30:	e00007b7          	lui	a5,0xe0000
     f34:	14912423          	sw	s1,328(sp)
     f38:	0407a483          	lw	s1,64(a5) # e0000040 <_ebss+0xdfffc2f8>
     f3c:	14812623          	sw	s0,332(sp)
     f40:	03380437          	lui	s0,0x3380
     f44:	14112823          	sw	ra,336(sp)
     f48:	00012823          	sw	zero,16(sp)
     f4c:	00012a23          	sw	zero,20(sp)
     f50:	97f40413          	addi	s0,s0,-1665 # 337f97f <_ebss+0x337bc37>
     f54:	e00007b7          	lui	a5,0xe0000
     f58:	0407a783          	lw	a5,64(a5) # e0000040 <_ebss+0xdfffc2f8>
     f5c:	409787b3          	sub	a5,a5,s1
     f60:	10f47263          	bgeu	s0,a5,1064 <lee_GPS+0x174>
     f64:	01814783          	lbu	a5,24(sp)
     f68:	14078863          	beqz	a5,10b8 <lee_GPS+0x1c8>
     f6c:	03014783          	lbu	a5,48(sp)
     f70:	14078463          	beqz	a5,10b8 <lee_GPS+0x1c8>
     f74:	00e14483          	lbu	s1,14(sp)
     f78:	00003537          	lui	a0,0x3
     f7c:	01810593          	addi	a1,sp,24
     f80:	00048613          	mv	a2,s1
     f84:	13050513          	addi	a0,a0,304 # 3130 <main+0x758>
     f88:	d19ff0ef          	jal	ra,ca0 <_printf>
     f8c:	00f14403          	lbu	s0,15(sp)
     f90:	00003537          	lui	a0,0x3
     f94:	03010593          	addi	a1,sp,48
     f98:	00040613          	mv	a2,s0
     f9c:	13c50513          	addi	a0,a0,316 # 313c <main+0x764>
     fa0:	d01ff0ef          	jal	ra,ca0 <_printf>
     fa4:	01010613          	addi	a2,sp,16
     fa8:	00048593          	mv	a1,s1
     fac:	01810513          	addi	a0,sp,24
     fb0:	b4cff0ef          	jal	ra,2fc <nmea_a_udeg>
     fb4:	08050e63          	beqz	a0,1050 <lee_GPS+0x160>
     fb8:	01410613          	addi	a2,sp,20
     fbc:	00040593          	mv	a1,s0
     fc0:	03010513          	addi	a0,sp,48
     fc4:	b38ff0ef          	jal	ra,2fc <nmea_a_udeg>
     fc8:	08050463          	beqz	a0,1050 <lee_GPS+0x160>
     fcc:	01012783          	lw	a5,16(sp)
     fd0:	000f4437          	lui	s0,0xf4
     fd4:	24040593          	addi	a1,s0,576 # f4240 <_ebss+0xf04f8>
     fd8:	41f7d713          	srai	a4,a5,0x1f
     fdc:	00f74533          	xor	a0,a4,a5
     fe0:	40e50533          	sub	a0,a0,a4
     fe4:	00f12423          	sw	a5,8(sp)
     fe8:	1c1010ef          	jal	ra,29a8 <__modsi3>
     fec:	00812783          	lw	a5,8(sp)
     ff0:	00a12223          	sw	a0,4(sp)
     ff4:	24040593          	addi	a1,s0,576
     ff8:	00078513          	mv	a0,a5
     ffc:	129010ef          	jal	ra,2924 <__divsi3>
    1000:	00412603          	lw	a2,4(sp)
    1004:	01412483          	lw	s1,20(sp)
    1008:	00050593          	mv	a1,a0
    100c:	00003537          	lui	a0,0x3
    1010:	14850513          	addi	a0,a0,328 # 3148 <main+0x770>
    1014:	c8dff0ef          	jal	ra,ca0 <_printf>
    1018:	41f4d793          	srai	a5,s1,0x1f
    101c:	0097c533          	xor	a0,a5,s1
    1020:	24040593          	addi	a1,s0,576
    1024:	40f50533          	sub	a0,a0,a5
    1028:	181010ef          	jal	ra,29a8 <__modsi3>
    102c:	00a12223          	sw	a0,4(sp)
    1030:	24040593          	addi	a1,s0,576
    1034:	00048513          	mv	a0,s1
    1038:	0ed010ef          	jal	ra,2924 <__divsi3>
    103c:	00412603          	lw	a2,4(sp)
    1040:	00050593          	mv	a1,a0
    1044:	00003537          	lui	a0,0x3
    1048:	15c50513          	addi	a0,a0,348 # 315c <main+0x784>
    104c:	c55ff0ef          	jal	ra,ca0 <_printf>
    1050:	15012083          	lw	ra,336(sp)
    1054:	14c12403          	lw	s0,332(sp)
    1058:	14812483          	lw	s1,328(sp)
    105c:	15410113          	addi	sp,sp,340
    1060:	00008067          	ret
    1064:	04810513          	addi	a0,sp,72
    1068:	c20ff0ef          	jal	ra,488 <lee_nmea.constprop.0>
    106c:	ee0504e3          	beqz	a0,f54 <lee_GPS+0x64>
    1070:	00003537          	lui	a0,0x3
    1074:	04810593          	addi	a1,sp,72
    1078:	12c50513          	addi	a0,a0,300 # 312c <main+0x754>
    107c:	c25ff0ef          	jal	ra,ca0 <_printf>
    1080:	04810613          	addi	a2,sp,72
    1084:	0c810513          	addi	a0,sp,200
    1088:	08000593          	li	a1,128
    108c:	a40ff0ef          	jal	ra,2cc <copia_strings.part.0>
    1090:	00f10793          	addi	a5,sp,15
    1094:	00f12023          	sw	a5,0(sp)
    1098:	01800713          	li	a4,24
    109c:	00e10793          	addi	a5,sp,14
    10a0:	03010693          	addi	a3,sp,48
    10a4:	01800613          	li	a2,24
    10a8:	01810593          	addi	a1,sp,24
    10ac:	0c810513          	addi	a0,sp,200
    10b0:	c90ff0ef          	jal	ra,540 <procesa_gga>
    10b4:	ea1ff06f          	j	f54 <lee_GPS+0x64>
    10b8:	00003537          	lui	a0,0x3
    10bc:	17050513          	addi	a0,a0,368 # 3170 <main+0x798>
    10c0:	be1ff0ef          	jal	ra,ca0 <_printf>
    10c4:	f8dff06f          	j	1050 <lee_GPS+0x160>

000010c8 <hascharUART0>:
    10c8:	000047b7          	lui	a5,0x4
    10cc:	d407c503          	lbu	a0,-704(a5) # 3d40 <wrix0>
    10d0:	000047b7          	lui	a5,0x4
    10d4:	d417c783          	lbu	a5,-703(a5) # 3d41 <rdix0>
    10d8:	40f50533          	sub	a0,a0,a5
    10dc:	01f57513          	andi	a0,a0,31
    10e0:	00008067          	ret

000010e4 <hascharUART1>:
    10e4:	000047b7          	lui	a5,0x4
    10e8:	d3e7c503          	lbu	a0,-706(a5) # 3d3e <wrix1>
    10ec:	000047b7          	lui	a5,0x4
    10f0:	d3f7c783          	lbu	a5,-705(a5) # 3d3f <rdix1>
    10f4:	40f50533          	sub	a0,a0,a5
    10f8:	01f57513          	andi	a0,a0,31
    10fc:	00008067          	ret

00001100 <hascharUART2>:
    1100:	000047b7          	lui	a5,0x4
    1104:	d3c7c503          	lbu	a0,-708(a5) # 3d3c <wrix2>
    1108:	000047b7          	lui	a5,0x4
    110c:	d3d7c783          	lbu	a5,-707(a5) # 3d3d <rdix2>
    1110:	40f50533          	sub	a0,a0,a5
    1114:	01f57513          	andi	a0,a0,31
    1118:	00008067          	ret

0000111c <getMEPC>:
    111c:	34101573          	.word	0x34101573
    1120:	34151073          	.word	0x34151073
    1124:	00008067          	ret

00001128 <irq0_handler>:
    1128:	fd810113          	addi	sp,sp,-40
    112c:	02112223          	sw	ra,36(sp)
    1130:	02512023          	sw	t0,32(sp)
    1134:	00612e23          	sw	t1,28(sp)
    1138:	00712c23          	sw	t2,24(sp)
    113c:	00b12823          	sw	a1,16(sp)
    1140:	00c12623          	sw	a2,12(sp)
    1144:	00d12423          	sw	a3,8(sp)
    1148:	00e12223          	sw	a4,4(sp)
    114c:	00f12023          	sw	a5,0(sp)
    1150:	00a12a23          	sw	a0,20(sp)
    1154:	fc9ff0ef          	jal	ra,111c <getMEPC>
    1158:	00050593          	mv	a1,a0
    115c:	00003537          	lui	a0,0x3
    1160:	19050513          	addi	a0,a0,400 # 3190 <main+0x7b8>
    1164:	b3dff0ef          	jal	ra,ca0 <_printf>
    1168:	02412083          	lw	ra,36(sp)
    116c:	02012283          	lw	t0,32(sp)
    1170:	01c12303          	lw	t1,28(sp)
    1174:	01812383          	lw	t2,24(sp)
    1178:	01412503          	lw	a0,20(sp)
    117c:	01012583          	lw	a1,16(sp)
    1180:	00c12603          	lw	a2,12(sp)
    1184:	00812683          	lw	a3,8(sp)
    1188:	00412703          	lw	a4,4(sp)
    118c:	00012783          	lw	a5,0(sp)
    1190:	02810113          	addi	sp,sp,40
    1194:	30200073          	mret

00001198 <spi_transf>:
    1198:	e00007b7          	lui	a5,0xe0000
    119c:	06a7a823          	sw	a0,112(a5) # e0000070 <_ebss+0xdfffc328>
    11a0:	e0000737          	lui	a4,0xe0000
    11a4:	07472783          	lw	a5,116(a4) # e0000074 <_ebss+0xdfffc32c>
    11a8:	0017f793          	andi	a5,a5,1
    11ac:	fe079ce3          	bnez	a5,11a4 <spi_transf+0xc>
    11b0:	07072503          	lw	a0,112(a4)
    11b4:	0ff57513          	zext.b	a0,a0
    11b8:	00008067          	ret

000011bc <escribe_BME>:
    11bc:	ff410113          	addi	sp,sp,-12
    11c0:	00112423          	sw	ra,8(sp)
    11c4:	00812223          	sw	s0,4(sp)
    11c8:	00912023          	sw	s1,0(sp)
    11cc:	00200793          	li	a5,2
    11d0:	e00004b7          	lui	s1,0xe0000
    11d4:	06f4ac23          	sw	a5,120(s1) # e0000078 <_ebss+0xdfffc330>
    11d8:	00050413          	mv	s0,a0
    11dc:	00058513          	mv	a0,a1
    11e0:	fb9ff0ef          	jal	ra,1198 <spi_transf>
    11e4:	00040513          	mv	a0,s0
    11e8:	fb1ff0ef          	jal	ra,1198 <spi_transf>
    11ec:	00812083          	lw	ra,8(sp)
    11f0:	00412403          	lw	s0,4(sp)
    11f4:	00300793          	li	a5,3
    11f8:	06f4ac23          	sw	a5,120(s1)
    11fc:	00012483          	lw	s1,0(sp)
    1200:	00c10113          	addi	sp,sp,12
    1204:	00008067          	ret

00001208 <inicia_BME>:
    1208:	ff410113          	addi	sp,sp,-12
    120c:	0e000593          	li	a1,224
    1210:	0b600513          	li	a0,182
    1214:	00112423          	sw	ra,8(sp)
    1218:	fa5ff0ef          	jal	ra,11bc <escribe_BME>
    121c:	07300593          	li	a1,115
    1220:	01000513          	li	a0,16
    1224:	f99ff0ef          	jal	ra,11bc <escribe_BME>
    1228:	07200593          	li	a1,114
    122c:	00100513          	li	a0,1
    1230:	f8dff0ef          	jal	ra,11bc <escribe_BME>
    1234:	07400593          	li	a1,116
    1238:	05400513          	li	a0,84
    123c:	f81ff0ef          	jal	ra,11bc <escribe_BME>
    1240:	06400593          	li	a1,100
    1244:	05900513          	li	a0,89
    1248:	f75ff0ef          	jal	ra,11bc <escribe_BME>
    124c:	05a00593          	li	a1,90
    1250:	00000513          	li	a0,0
    1254:	f69ff0ef          	jal	ra,11bc <escribe_BME>
    1258:	07100593          	li	a1,113
    125c:	01000513          	li	a0,16
    1260:	f5dff0ef          	jal	ra,11bc <escribe_BME>
    1264:	05500513          	li	a0,85
    1268:	07400593          	li	a1,116
    126c:	f51ff0ef          	jal	ra,11bc <escribe_BME>
    1270:	00812083          	lw	ra,8(sp)
    1274:	00092537          	lui	a0,0x92
    1278:	7b650513          	addi	a0,a0,1974 # 927b6 <_ebss+0x8ea6e>
    127c:	00c10113          	addi	sp,sp,12
    1280:	de1fe06f          	j	60 <delay_loop>

00001284 <lee_BME>:
    1284:	ff410113          	addi	sp,sp,-12
    1288:	00112423          	sw	ra,8(sp)
    128c:	00812223          	sw	s0,4(sp)
    1290:	00200793          	li	a5,2
    1294:	e0000437          	lui	s0,0xe0000
    1298:	06f42c23          	sw	a5,120(s0) # e0000078 <_ebss+0xdfffc330>
    129c:	08056513          	ori	a0,a0,128
    12a0:	ef9ff0ef          	jal	ra,1198 <spi_transf>
    12a4:	00000513          	li	a0,0
    12a8:	ef1ff0ef          	jal	ra,1198 <spi_transf>
    12ac:	00300793          	li	a5,3
    12b0:	00812083          	lw	ra,8(sp)
    12b4:	06f42c23          	sw	a5,120(s0)
    12b8:	00412403          	lw	s0,4(sp)
    12bc:	00c10113          	addi	sp,sp,12
    12c0:	00008067          	ret

000012c4 <devuelve_temp>:
    12c4:	fe810113          	addi	sp,sp,-24
    12c8:	07300593          	li	a1,115
    12cc:	00000513          	li	a0,0
    12d0:	00112a23          	sw	ra,20(sp)
    12d4:	00812823          	sw	s0,16(sp)
    12d8:	00912623          	sw	s1,12(sp)
    12dc:	ee1ff0ef          	jal	ra,11bc <escribe_BME>
    12e0:	0ea00513          	li	a0,234
    12e4:	fa1ff0ef          	jal	ra,1284 <lee_BME>
    12e8:	00050413          	mv	s0,a0
    12ec:	0e900513          	li	a0,233
    12f0:	f95ff0ef          	jal	ra,1284 <lee_BME>
    12f4:	00841793          	slli	a5,s0,0x8
    12f8:	00a7e7b3          	or	a5,a5,a0
    12fc:	08b00513          	li	a0,139
    1300:	00f12423          	sw	a5,8(sp)
    1304:	f81ff0ef          	jal	ra,1284 <lee_BME>
    1308:	00050493          	mv	s1,a0
    130c:	08a00513          	li	a0,138
    1310:	f75ff0ef          	jal	ra,1284 <lee_BME>
    1314:	00849493          	slli	s1,s1,0x8
    1318:	00a4e7b3          	or	a5,s1,a0
    131c:	08c00513          	li	a0,140
    1320:	00f12023          	sw	a5,0(sp)
    1324:	f61ff0ef          	jal	ra,1284 <lee_BME>
    1328:	07300593          	li	a1,115
    132c:	00050493          	mv	s1,a0
    1330:	01000513          	li	a0,16
    1334:	e89ff0ef          	jal	ra,11bc <escribe_BME>
    1338:	02200513          	li	a0,34
    133c:	f49ff0ef          	jal	ra,1284 <lee_BME>
    1340:	00050413          	mv	s0,a0
    1344:	02300513          	li	a0,35
    1348:	f3dff0ef          	jal	ra,1284 <lee_BME>
    134c:	00c41693          	slli	a3,s0,0xc
    1350:	00451513          	slli	a0,a0,0x4
    1354:	00a6e6b3          	or	a3,a3,a0
    1358:	02400513          	li	a0,36
    135c:	00d12223          	sw	a3,4(sp)
    1360:	f25ff0ef          	jal	ra,1284 <lee_BME>
    1364:	00412683          	lw	a3,4(sp)
    1368:	00812783          	lw	a5,8(sp)
    136c:	00455413          	srli	s0,a0,0x4
    1370:	0ff47413          	zext.b	s0,s0
    1374:	00d46433          	or	s0,s0,a3
    1378:	00179793          	slli	a5,a5,0x1
    137c:	40345413          	srai	s0,s0,0x3
    1380:	40f40433          	sub	s0,s0,a5
    1384:	40145593          	srai	a1,s0,0x1
    1388:	00058513          	mv	a0,a1
    138c:	574010ef          	jal	ra,2900 <__mulsi3>
    1390:	00449593          	slli	a1,s1,0x4
    1394:	40c55513          	srai	a0,a0,0xc
    1398:	568010ef          	jal	ra,2900 <__mulsi3>
    139c:	40e55493          	srai	s1,a0,0xe
    13a0:	00012503          	lw	a0,0(sp)
    13a4:	00040593          	mv	a1,s0
    13a8:	558010ef          	jal	ra,2900 <__mulsi3>
    13ac:	40b55513          	srai	a0,a0,0xb
    13b0:	00a487b3          	add	a5,s1,a0
    13b4:	01412083          	lw	ra,20(sp)
    13b8:	01012403          	lw	s0,16(sp)
    13bc:	00279513          	slli	a0,a5,0x2
    13c0:	00004737          	lui	a4,0x4
    13c4:	00f50533          	add	a0,a0,a5
    13c8:	d2f72c23          	sw	a5,-712(a4) # 3d38 <bme680_t_fine>
    13cc:	08050513          	addi	a0,a0,128
    13d0:	00c12483          	lw	s1,12(sp)
    13d4:	40855513          	srai	a0,a0,0x8
    13d8:	01810113          	addi	sp,sp,24
    13dc:	00008067          	ret

000013e0 <devuelve_pres>:
    13e0:	fc010113          	addi	sp,sp,-64
    13e4:	07300593          	li	a1,115
    13e8:	000047b7          	lui	a5,0x4
    13ec:	00000513          	li	a0,0
    13f0:	02112e23          	sw	ra,60(sp)
    13f4:	02812c23          	sw	s0,56(sp)
    13f8:	02912a23          	sw	s1,52(sp)
    13fc:	d387a483          	lw	s1,-712(a5) # 3d38 <bme680_t_fine>
    1400:	dbdff0ef          	jal	ra,11bc <escribe_BME>
    1404:	08f00513          	li	a0,143
    1408:	e7dff0ef          	jal	ra,1284 <lee_BME>
    140c:	00050413          	mv	s0,a0
    1410:	08e00513          	li	a0,142
    1414:	e71ff0ef          	jal	ra,1284 <lee_BME>
    1418:	00841413          	slli	s0,s0,0x8
    141c:	00a467b3          	or	a5,s0,a0
    1420:	09100513          	li	a0,145
    1424:	00f12023          	sw	a5,0(sp)
    1428:	e5dff0ef          	jal	ra,1284 <lee_BME>
    142c:	00050413          	mv	s0,a0
    1430:	09000513          	li	a0,144
    1434:	e51ff0ef          	jal	ra,1284 <lee_BME>
    1438:	00841413          	slli	s0,s0,0x8
    143c:	00a467b3          	or	a5,s0,a0
    1440:	09200513          	li	a0,146
    1444:	00f12223          	sw	a5,4(sp)
    1448:	e3dff0ef          	jal	ra,1284 <lee_BME>
    144c:	02a12823          	sw	a0,48(sp)
    1450:	09500513          	li	a0,149
    1454:	e31ff0ef          	jal	ra,1284 <lee_BME>
    1458:	00050413          	mv	s0,a0
    145c:	09400513          	li	a0,148
    1460:	e25ff0ef          	jal	ra,1284 <lee_BME>
    1464:	00841793          	slli	a5,s0,0x8
    1468:	00a7e7b3          	or	a5,a5,a0
    146c:	09700513          	li	a0,151
    1470:	02f12623          	sw	a5,44(sp)
    1474:	e11ff0ef          	jal	ra,1284 <lee_BME>
    1478:	00050413          	mv	s0,a0
    147c:	09600513          	li	a0,150
    1480:	e05ff0ef          	jal	ra,1284 <lee_BME>
    1484:	00841413          	slli	s0,s0,0x8
    1488:	00a467b3          	or	a5,s0,a0
    148c:	09900513          	li	a0,153
    1490:	00f12423          	sw	a5,8(sp)
    1494:	df1ff0ef          	jal	ra,1284 <lee_BME>
    1498:	00a12a23          	sw	a0,20(sp)
    149c:	09800513          	li	a0,152
    14a0:	de5ff0ef          	jal	ra,1284 <lee_BME>
    14a4:	00a12c23          	sw	a0,24(sp)
    14a8:	09d00513          	li	a0,157
    14ac:	dd9ff0ef          	jal	ra,1284 <lee_BME>
    14b0:	00050413          	mv	s0,a0
    14b4:	09c00513          	li	a0,156
    14b8:	dcdff0ef          	jal	ra,1284 <lee_BME>
    14bc:	00841413          	slli	s0,s0,0x8
    14c0:	00a467b3          	or	a5,s0,a0
    14c4:	09f00513          	li	a0,159
    14c8:	00f12623          	sw	a5,12(sp)
    14cc:	db9ff0ef          	jal	ra,1284 <lee_BME>
    14d0:	00050413          	mv	s0,a0
    14d4:	09e00513          	li	a0,158
    14d8:	dadff0ef          	jal	ra,1284 <lee_BME>
    14dc:	00841413          	slli	s0,s0,0x8
    14e0:	00a467b3          	or	a5,s0,a0
    14e4:	0a000513          	li	a0,160
    14e8:	00f12823          	sw	a5,16(sp)
    14ec:	d99ff0ef          	jal	ra,1284 <lee_BME>
    14f0:	07300593          	li	a1,115
    14f4:	00a12e23          	sw	a0,28(sp)
    14f8:	01000513          	li	a0,16
    14fc:	cc1ff0ef          	jal	ra,11bc <escribe_BME>
    1500:	01f00513          	li	a0,31
    1504:	d81ff0ef          	jal	ra,1284 <lee_BME>
    1508:	00050413          	mv	s0,a0
    150c:	02000513          	li	a0,32
    1510:	d75ff0ef          	jal	ra,1284 <lee_BME>
    1514:	00c41693          	slli	a3,s0,0xc
    1518:	00451513          	slli	a0,a0,0x4
    151c:	00a6e6b3          	or	a3,a3,a0
    1520:	02100513          	li	a0,33
    1524:	02d12423          	sw	a3,40(sp)
    1528:	d5dff0ef          	jal	ra,1284 <lee_BME>
    152c:	ffff05b7          	lui	a1,0xffff0
    1530:	4014d413          	srai	s0,s1,0x1
    1534:	60058593          	addi	a1,a1,1536 # ffff0600 <_ebss+0xfffec8b8>
    1538:	00b40433          	add	s0,s0,a1
    153c:	40245593          	srai	a1,s0,0x2
    1540:	02a12223          	sw	a0,36(sp)
    1544:	00058513          	mv	a0,a1
    1548:	3b8010ef          	jal	ra,2900 <__mulsi3>
    154c:	01412583          	lw	a1,20(sp)
    1550:	00050613          	mv	a2,a0
    1554:	40b55513          	srai	a0,a0,0xb
    1558:	02c12023          	sw	a2,32(sp)
    155c:	3a4010ef          	jal	ra,2900 <__mulsi3>
    1560:	40255293          	srai	t0,a0,0x2
    1564:	00812503          	lw	a0,8(sp)
    1568:	00040593          	mv	a1,s0
    156c:	00512a23          	sw	t0,20(sp)
    1570:	390010ef          	jal	ra,2900 <__mulsi3>
    1574:	01412283          	lw	t0,20(sp)
    1578:	00151493          	slli	s1,a0,0x1
    157c:	00412503          	lw	a0,4(sp)
    1580:	00040593          	mv	a1,s0
    1584:	005484b3          	add	s1,s1,t0
    1588:	378010ef          	jal	ra,2900 <__mulsi3>
    158c:	03012303          	lw	t1,48(sp)
    1590:	02012603          	lw	a2,32(sp)
    1594:	40155413          	srai	s0,a0,0x1
    1598:	00531593          	slli	a1,t1,0x5
    159c:	40d65513          	srai	a0,a2,0xd
    15a0:	360010ef          	jal	ra,2900 <__mulsi3>
    15a4:	40355513          	srai	a0,a0,0x3
    15a8:	00012583          	lw	a1,0(sp)
    15ac:	00850533          	add	a0,a0,s0
    15b0:	00008637          	lui	a2,0x8
    15b4:	41255513          	srai	a0,a0,0x12
    15b8:	00c50533          	add	a0,a0,a2
    15bc:	344010ef          	jal	ra,2900 <__mulsi3>
    15c0:	02412703          	lw	a4,36(sp)
    15c4:	02c12783          	lw	a5,44(sp)
    15c8:	02812683          	lw	a3,40(sp)
    15cc:	00475713          	srli	a4,a4,0x4
    15d0:	4024d493          	srai	s1,s1,0x2
    15d4:	0ff77713          	zext.b	a4,a4
    15d8:	01079793          	slli	a5,a5,0x10
    15dc:	00d76733          	or	a4,a4,a3
    15e0:	40f55413          	srai	s0,a0,0xf
    15e4:	009787b3          	add	a5,a5,s1
    15e8:	00100537          	lui	a0,0x100
    15ec:	40e50533          	sub	a0,a0,a4
    15f0:	40c7d793          	srai	a5,a5,0xc
    15f4:	000015b7          	lui	a1,0x1
    15f8:	c3558593          	addi	a1,a1,-971 # c35 <_getchUART1+0x41>
    15fc:	40f50533          	sub	a0,a0,a5
    1600:	300010ef          	jal	ra,2900 <__mulsi3>
    1604:	40000737          	lui	a4,0x40000
    1608:	08e54663          	blt	a0,a4,1694 <devuelve_pres+0x2b4>
    160c:	00040593          	mv	a1,s0
    1610:	31c010ef          	jal	ra,292c <__hidden___udivsi3>
    1614:	00151413          	slli	s0,a0,0x1
    1618:	40345593          	srai	a1,s0,0x3
    161c:	00058513          	mv	a0,a1
    1620:	2e0010ef          	jal	ra,2900 <__mulsi3>
    1624:	01012583          	lw	a1,16(sp)
    1628:	40d55513          	srai	a0,a0,0xd
    162c:	2d4010ef          	jal	ra,2900 <__mulsi3>
    1630:	00c12583          	lw	a1,12(sp)
    1634:	40c55493          	srai	s1,a0,0xc
    1638:	40245513          	srai	a0,s0,0x2
    163c:	2c4010ef          	jal	ra,2900 <__mulsi3>
    1640:	40845593          	srai	a1,s0,0x8
    1644:	40d55513          	srai	a0,a0,0xd
    1648:	00a484b3          	add	s1,s1,a0
    164c:	00058513          	mv	a0,a1
    1650:	2b0010ef          	jal	ra,2900 <__mulsi3>
    1654:	40845593          	srai	a1,s0,0x8
    1658:	2a8010ef          	jal	ra,2900 <__mulsi3>
    165c:	01c12583          	lw	a1,28(sp)
    1660:	2a0010ef          	jal	ra,2900 <__mulsi3>
    1664:	01812783          	lw	a5,24(sp)
    1668:	41155513          	srai	a0,a0,0x11
    166c:	00a484b3          	add	s1,s1,a0
    1670:	00779713          	slli	a4,a5,0x7
    1674:	00e484b3          	add	s1,s1,a4
    1678:	4044d493          	srai	s1,s1,0x4
    167c:	00848533          	add	a0,s1,s0
    1680:	03c12083          	lw	ra,60(sp)
    1684:	03812403          	lw	s0,56(sp)
    1688:	03412483          	lw	s1,52(sp)
    168c:	04010113          	addi	sp,sp,64
    1690:	00008067          	ret
    1694:	00040593          	mv	a1,s0
    1698:	00151513          	slli	a0,a0,0x1
    169c:	290010ef          	jal	ra,292c <__hidden___udivsi3>
    16a0:	00050413          	mv	s0,a0
    16a4:	f75ff06f          	j	1618 <devuelve_pres+0x238>

000016a8 <devuelve_hum>:
    16a8:	fd410113          	addi	sp,sp,-44
    16ac:	07300593          	li	a1,115
    16b0:	00a12023          	sw	a0,0(sp)
    16b4:	00000513          	li	a0,0
    16b8:	02112423          	sw	ra,40(sp)
    16bc:	02812223          	sw	s0,36(sp)
    16c0:	02912023          	sw	s1,32(sp)
    16c4:	af9ff0ef          	jal	ra,11bc <escribe_BME>
    16c8:	0e300513          	li	a0,227
    16cc:	bb9ff0ef          	jal	ra,1284 <lee_BME>
    16d0:	00050493          	mv	s1,a0
    16d4:	0e200513          	li	a0,226
    16d8:	badff0ef          	jal	ra,1284 <lee_BME>
    16dc:	00449713          	slli	a4,s1,0x4
    16e0:	00f57513          	andi	a0,a0,15
    16e4:	00a76733          	or	a4,a4,a0
    16e8:	0e100513          	li	a0,225
    16ec:	00e12e23          	sw	a4,28(sp)
    16f0:	b95ff0ef          	jal	ra,1284 <lee_BME>
    16f4:	00050493          	mv	s1,a0
    16f8:	0e200513          	li	a0,226
    16fc:	b89ff0ef          	jal	ra,1284 <lee_BME>
    1700:	00455793          	srli	a5,a0,0x4
    1704:	00449493          	slli	s1,s1,0x4
    1708:	0ff7f793          	zext.b	a5,a5
    170c:	00f4e7b3          	or	a5,s1,a5
    1710:	0e400513          	li	a0,228
    1714:	00f12223          	sw	a5,4(sp)
    1718:	b6dff0ef          	jal	ra,1284 <lee_BME>
    171c:	00a12423          	sw	a0,8(sp)
    1720:	0e500513          	li	a0,229
    1724:	b61ff0ef          	jal	ra,1284 <lee_BME>
    1728:	00a12623          	sw	a0,12(sp)
    172c:	0e600513          	li	a0,230
    1730:	b55ff0ef          	jal	ra,1284 <lee_BME>
    1734:	00050493          	mv	s1,a0
    1738:	0e700513          	li	a0,231
    173c:	b49ff0ef          	jal	ra,1284 <lee_BME>
    1740:	00050413          	mv	s0,a0
    1744:	0e800513          	li	a0,232
    1748:	b3dff0ef          	jal	ra,1284 <lee_BME>
    174c:	07300593          	li	a1,115
    1750:	00a12823          	sw	a0,16(sp)
    1754:	01000513          	li	a0,16
    1758:	a65ff0ef          	jal	ra,11bc <escribe_BME>
    175c:	02500513          	li	a0,37
    1760:	b25ff0ef          	jal	ra,1284 <lee_BME>
    1764:	00a12c23          	sw	a0,24(sp)
    1768:	02600513          	li	a0,38
    176c:	b19ff0ef          	jal	ra,1284 <lee_BME>
    1770:	00012583          	lw	a1,0(sp)
    1774:	00a12a23          	sw	a0,20(sp)
    1778:	00048513          	mv	a0,s1
    177c:	184010ef          	jal	ra,2900 <__mulsi3>
    1780:	06400593          	li	a1,100
    1784:	1a0010ef          	jal	ra,2924 <__divsi3>
    1788:	00012583          	lw	a1,0(sp)
    178c:	174010ef          	jal	ra,2900 <__mulsi3>
    1790:	06400593          	li	a1,100
    1794:	40655513          	srai	a0,a0,0x6
    1798:	18c010ef          	jal	ra,2924 <__divsi3>
    179c:	00012583          	lw	a1,0(sp)
    17a0:	00050493          	mv	s1,a0
    17a4:	00c12503          	lw	a0,12(sp)
    17a8:	158010ef          	jal	ra,2900 <__mulsi3>
    17ac:	06400593          	li	a1,100
    17b0:	174010ef          	jal	ra,2924 <__divsi3>
    17b4:	00412583          	lw	a1,4(sp)
    17b8:	00a484b3          	add	s1,s1,a0
    17bc:	00004537          	lui	a0,0x4
    17c0:	00a48533          	add	a0,s1,a0
    17c4:	13c010ef          	jal	ra,2900 <__mulsi3>
    17c8:	40a55793          	srai	a5,a0,0xa
    17cc:	00f12223          	sw	a5,4(sp)
    17d0:	01812783          	lw	a5,24(sp)
    17d4:	01412603          	lw	a2,20(sp)
    17d8:	01c12703          	lw	a4,28(sp)
    17dc:	00012583          	lw	a1,0(sp)
    17e0:	00812503          	lw	a0,8(sp)
    17e4:	00879793          	slli	a5,a5,0x8
    17e8:	00c7e7b3          	or	a5,a5,a2
    17ec:	00471713          	slli	a4,a4,0x4
    17f0:	40e784b3          	sub	s1,a5,a4
    17f4:	10c010ef          	jal	ra,2900 <__mulsi3>
    17f8:	06400593          	li	a1,100
    17fc:	128010ef          	jal	ra,2924 <__divsi3>
    1800:	40155593          	srai	a1,a0,0x1
    1804:	00412503          	lw	a0,4(sp)
    1808:	40b485b3          	sub	a1,s1,a1
    180c:	0f4010ef          	jal	ra,2900 <__mulsi3>
    1810:	00012583          	lw	a1,0(sp)
    1814:	00050493          	mv	s1,a0
    1818:	01012503          	lw	a0,16(sp)
    181c:	0e4010ef          	jal	ra,2900 <__mulsi3>
    1820:	06400593          	li	a1,100
    1824:	100010ef          	jal	ra,2924 <__divsi3>
    1828:	40e4d593          	srai	a1,s1,0xe
    182c:	00741693          	slli	a3,s0,0x7
    1830:	00d50433          	add	s0,a0,a3
    1834:	00058513          	mv	a0,a1
    1838:	0c8010ef          	jal	ra,2900 <__mulsi3>
    183c:	40445413          	srai	s0,s0,0x4
    1840:	40a55593          	srai	a1,a0,0xa
    1844:	00040513          	mv	a0,s0
    1848:	0b8010ef          	jal	ra,2900 <__mulsi3>
    184c:	40155793          	srai	a5,a0,0x1
    1850:	009787b3          	add	a5,a5,s1
    1854:	40a7d793          	srai	a5,a5,0xa
    1858:	00579513          	slli	a0,a5,0x5
    185c:	40f50533          	sub	a0,a0,a5
    1860:	02812083          	lw	ra,40(sp)
    1864:	02412403          	lw	s0,36(sp)
    1868:	00251513          	slli	a0,a0,0x2
    186c:	00f50533          	add	a0,a0,a5
    1870:	00351513          	slli	a0,a0,0x3
    1874:	02012483          	lw	s1,32(sp)
    1878:	40c55513          	srai	a0,a0,0xc
    187c:	02c10113          	addi	sp,sp,44
    1880:	00008067          	ret

00001884 <lee_MCP_ADC.part.0>:
    1884:	ff410113          	addi	sp,sp,-12
    1888:	00759593          	slli	a1,a1,0x7
    188c:	00451513          	slli	a0,a0,0x4
    1890:	00112423          	sw	ra,8(sp)
    1894:	00812223          	sw	s0,4(sp)
    1898:	00912023          	sw	s1,0(sp)
    189c:	00b56533          	or	a0,a0,a1
    18a0:	00100793          	li	a5,1
    18a4:	e00004b7          	lui	s1,0xe0000
    18a8:	06f4ac23          	sw	a5,120(s1) # e0000078 <_ebss+0xdfffc330>
    18ac:	0ff57413          	zext.b	s0,a0
    18b0:	00100513          	li	a0,1
    18b4:	8e5ff0ef          	jal	ra,1198 <spi_transf>
    18b8:	00040513          	mv	a0,s0
    18bc:	8ddff0ef          	jal	ra,1198 <spi_transf>
    18c0:	00050413          	mv	s0,a0
    18c4:	00000513          	li	a0,0
    18c8:	8d1ff0ef          	jal	ra,1198 <spi_transf>
    18cc:	00841413          	slli	s0,s0,0x8
    18d0:	00812083          	lw	ra,8(sp)
    18d4:	00a46533          	or	a0,s0,a0
    18d8:	00412403          	lw	s0,4(sp)
    18dc:	00300793          	li	a5,3
    18e0:	06f4ac23          	sw	a5,120(s1)
    18e4:	3ff57513          	andi	a0,a0,1023
    18e8:	00012483          	lw	s1,0(sp)
    18ec:	00c10113          	addi	sp,sp,12
    18f0:	00008067          	ret

000018f4 <lee_MCP>:
    18f4:	00300793          	li	a5,3
    18f8:	00a7e663          	bltu	a5,a0,1904 <lee_MCP+0x10>
    18fc:	00100593          	li	a1,1
    1900:	f85ff06f          	j	1884 <lee_MCP_ADC.part.0>
    1904:	00000513          	li	a0,0
    1908:	00008067          	ret

0000190c <lee_MQ9_CO>:
    190c:	ff410113          	addi	sp,sp,-12
    1910:	00112423          	sw	ra,8(sp)
    1914:	fe1ff0ef          	jal	ra,18f4 <lee_MCP>
    1918:	00251793          	slli	a5,a0,0x2
    191c:	00a78533          	add	a0,a5,a0
    1920:	00551793          	slli	a5,a0,0x5
    1924:	00f50533          	add	a0,a0,a5
    1928:	00151513          	slli	a0,a0,0x1
    192c:	41f55793          	srai	a5,a0,0x1f
    1930:	3ff7f793          	andi	a5,a5,1023
    1934:	00a787b3          	add	a5,a5,a0
    1938:	40a7d793          	srai	a5,a5,0xa
    193c:	00279513          	slli	a0,a5,0x2
    1940:	00f50533          	add	a0,a0,a5
    1944:	00700593          	li	a1,7
    1948:	00151513          	slli	a0,a0,0x1
    194c:	7d9000ef          	jal	ra,2924 <__divsi3>
    1950:	00812083          	lw	ra,8(sp)
    1954:	00c10113          	addi	sp,sp,12
    1958:	00008067          	ret

0000195c <lee_CO>:
    195c:	ff010113          	addi	sp,sp,-16
    1960:	00000513          	li	a0,0
    1964:	00112623          	sw	ra,12(sp)
    1968:	fa5ff0ef          	jal	ra,190c <lee_MQ9_CO>
    196c:	e00007b7          	lui	a5,0xe0000
    1970:	0307a703          	lw	a4,48(a5) # e0000030 <_ebss+0xdfffc2e8>
    1974:	00a12023          	sw	a0,0(sp)
    1978:	00003537          	lui	a0,0x3
    197c:	f1f77713          	andi	a4,a4,-225
    1980:	02e7a823          	sw	a4,48(a5)
    1984:	0307a703          	lw	a4,48(a5)
    1988:	1a050513          	addi	a0,a0,416 # 31a0 <main+0x7c8>
    198c:	f1f77713          	andi	a4,a4,-225
    1990:	02076713          	ori	a4,a4,32
    1994:	02e7a823          	sw	a4,48(a5)
    1998:	0207a703          	lw	a4,32(a5)
    199c:	00276713          	ori	a4,a4,2
    19a0:	02e7a023          	sw	a4,32(a5)
    19a4:	000f4737          	lui	a4,0xf4
    19a8:	24070713          	addi	a4,a4,576 # f4240 <_ebss+0xf04f8>
    19ac:	04e7a023          	sw	a4,64(a5)
    19b0:	000047b7          	lui	a5,0x4
    19b4:	00100713          	li	a4,1
    19b8:	d4e7a223          	sw	a4,-700(a5) # 3d44 <estado>
    19bc:	ae4ff0ef          	jal	ra,ca0 <_printf>
    19c0:	00012583          	lw	a1,0(sp)
    19c4:	00c12083          	lw	ra,12(sp)
    19c8:	00003537          	lui	a0,0x3
    19cc:	1c850513          	addi	a0,a0,456 # 31c8 <main+0x7f0>
    19d0:	01010113          	addi	sp,sp,16
    19d4:	accff06f          	j	ca0 <_printf>

000019d8 <lee_MQ9_CH4>:
    19d8:	ff410113          	addi	sp,sp,-12
    19dc:	00112423          	sw	ra,8(sp)
    19e0:	f15ff0ef          	jal	ra,18f4 <lee_MCP>
    19e4:	00251793          	slli	a5,a0,0x2
    19e8:	00a78533          	add	a0,a5,a0
    19ec:	00551793          	slli	a5,a0,0x5
    19f0:	00f50533          	add	a0,a0,a5
    19f4:	00151513          	slli	a0,a0,0x1
    19f8:	41f55793          	srai	a5,a0,0x1f
    19fc:	3ff7f793          	andi	a5,a5,1023
    1a00:	00a787b3          	add	a5,a5,a0
    1a04:	00812083          	lw	ra,8(sp)
    1a08:	40a7d793          	srai	a5,a5,0xa
    1a0c:	00279513          	slli	a0,a5,0x2
    1a10:	00f50533          	add	a0,a0,a5
    1a14:	00151513          	slli	a0,a0,0x1
    1a18:	00c10113          	addi	sp,sp,12
    1a1c:	00008067          	ret

00001a20 <lee_CH4>:
    1a20:	ff010113          	addi	sp,sp,-16
    1a24:	00000513          	li	a0,0
    1a28:	00112623          	sw	ra,12(sp)
    1a2c:	fadff0ef          	jal	ra,19d8 <lee_MQ9_CH4>
    1a30:	e0000737          	lui	a4,0xe0000
    1a34:	03072783          	lw	a5,48(a4) # e0000030 <_ebss+0xdfffc2e8>
    1a38:	00a12023          	sw	a0,0(sp)
    1a3c:	00003537          	lui	a0,0x3
    1a40:	f1f7f793          	andi	a5,a5,-225
    1a44:	02f72823          	sw	a5,48(a4)
    1a48:	1dc50513          	addi	a0,a0,476 # 31dc <main+0x804>
    1a4c:	000047b7          	lui	a5,0x4
    1a50:	00200713          	li	a4,2
    1a54:	d4e7a223          	sw	a4,-700(a5) # 3d44 <estado>
    1a58:	a48ff0ef          	jal	ra,ca0 <_printf>
    1a5c:	00012583          	lw	a1,0(sp)
    1a60:	00c12083          	lw	ra,12(sp)
    1a64:	00003537          	lui	a0,0x3
    1a68:	20450513          	addi	a0,a0,516 # 3204 <main+0x82c>
    1a6c:	01010113          	addi	sp,sp,16
    1a70:	a30ff06f          	j	ca0 <_printf>

00001a74 <irq1_handler>:
    1a74:	fd810113          	addi	sp,sp,-40
    1a78:	00e12223          	sw	a4,4(sp)
    1a7c:	e0000737          	lui	a4,0xe0000
    1a80:	00f12023          	sw	a5,0(sp)
    1a84:	02072783          	lw	a5,32(a4) # e0000020 <_ebss+0xdfffc2d8>
    1a88:	02112223          	sw	ra,36(sp)
    1a8c:	02512023          	sw	t0,32(sp)
    1a90:	ffd7f793          	andi	a5,a5,-3
    1a94:	00612e23          	sw	t1,28(sp)
    1a98:	00712c23          	sw	t2,24(sp)
    1a9c:	00a12a23          	sw	a0,20(sp)
    1aa0:	00b12823          	sw	a1,16(sp)
    1aa4:	00c12623          	sw	a2,12(sp)
    1aa8:	00d12423          	sw	a3,8(sp)
    1aac:	02f72023          	sw	a5,32(a4)
    1ab0:	000047b7          	lui	a5,0x4
    1ab4:	d447a783          	lw	a5,-700(a5) # 3d44 <estado>
    1ab8:	00100713          	li	a4,1
    1abc:	04e78263          	beq	a5,a4,1b00 <irq1_handler+0x8c>
    1ac0:	00200713          	li	a4,2
    1ac4:	04e78263          	beq	a5,a4,1b08 <irq1_handler+0x94>
    1ac8:	00079463          	bnez	a5,1ad0 <irq1_handler+0x5c>
    1acc:	e91ff0ef          	jal	ra,195c <lee_CO>
    1ad0:	02412083          	lw	ra,36(sp)
    1ad4:	02012283          	lw	t0,32(sp)
    1ad8:	01c12303          	lw	t1,28(sp)
    1adc:	01812383          	lw	t2,24(sp)
    1ae0:	01412503          	lw	a0,20(sp)
    1ae4:	01012583          	lw	a1,16(sp)
    1ae8:	00c12603          	lw	a2,12(sp)
    1aec:	00812683          	lw	a3,8(sp)
    1af0:	00412703          	lw	a4,4(sp)
    1af4:	00012783          	lw	a5,0(sp)
    1af8:	02810113          	addi	sp,sp,40
    1afc:	30200073          	mret
    1b00:	f21ff0ef          	jal	ra,1a20 <lee_CH4>
    1b04:	fcdff06f          	j	1ad0 <irq1_handler+0x5c>
    1b08:	00003537          	lui	a0,0x3
    1b0c:	21c50513          	addi	a0,a0,540 # 321c <main+0x844>
    1b10:	990ff0ef          	jal	ra,ca0 <_printf>
    1b14:	fbdff06f          	j	1ad0 <irq1_handler+0x5c>

00001b18 <lee_MCP_multiple>:
    1b18:	ff010113          	addi	sp,sp,-16
    1b1c:	00812423          	sw	s0,8(sp)
    1b20:	00912223          	sw	s1,4(sp)
    1b24:	00112623          	sw	ra,12(sp)
    1b28:	00050413          	mv	s0,a0
    1b2c:	00060493          	mv	s1,a2
    1b30:	00b505b3          	add	a1,a0,a1
    1b34:	00b41c63          	bne	s0,a1,1b4c <lee_MCP_multiple+0x34>
    1b38:	00c12083          	lw	ra,12(sp)
    1b3c:	00812403          	lw	s0,8(sp)
    1b40:	00412483          	lw	s1,4(sp)
    1b44:	01010113          	addi	sp,sp,16
    1b48:	00008067          	ret
    1b4c:	00044503          	lbu	a0,0(s0)
    1b50:	00b12023          	sw	a1,0(sp)
    1b54:	00140413          	addi	s0,s0,1
    1b58:	d9dff0ef          	jal	ra,18f4 <lee_MCP>
    1b5c:	00a4a023          	sw	a0,0(s1)
    1b60:	00012583          	lw	a1,0(sp)
    1b64:	00448493          	addi	s1,s1,4
    1b68:	fcdff06f          	j	1b34 <lee_MCP_multiple+0x1c>

00001b6c <lee_MCP_reg>:
    1b6c:	d89ff06f          	j	18f4 <lee_MCP>

00001b70 <lee_GP2Y>:
    1b70:	e00007b7          	lui	a5,0xe0000
    1b74:	ff410113          	addi	sp,sp,-12
    1b78:	00812223          	sw	s0,4(sp)
    1b7c:	0407a403          	lw	s0,64(a5) # e0000040 <_ebss+0xdfffc2f8>
    1b80:	0307a703          	lw	a4,48(a5)
    1b84:	00112423          	sw	ra,8(sp)
    1b88:	e00006b7          	lui	a3,0xe0000
    1b8c:	01076713          	ori	a4,a4,16
    1b90:	02e7a823          	sw	a4,48(a5)
    1b94:	000017b7          	lui	a5,0x1
    1b98:	3af78793          	addi	a5,a5,943 # 13af <devuelve_temp+0xeb>
    1b9c:	0406a703          	lw	a4,64(a3) # e0000040 <_ebss+0xdfffc2f8>
    1ba0:	40870733          	sub	a4,a4,s0
    1ba4:	fee7fce3          	bgeu	a5,a4,1b9c <lee_GP2Y+0x2c>
    1ba8:	0406a783          	lw	a5,64(a3)
    1bac:	d49ff0ef          	jal	ra,18f4 <lee_MCP>
    1bb0:	000017b7          	lui	a5,0x1
    1bb4:	e00006b7          	lui	a3,0xe0000
    1bb8:	67f78793          	addi	a5,a5,1663 # 167f <devuelve_pres+0x29f>
    1bbc:	0406a703          	lw	a4,64(a3) # e0000040 <_ebss+0xdfffc2f8>
    1bc0:	40870733          	sub	a4,a4,s0
    1bc4:	fee7fce3          	bgeu	a5,a4,1bbc <lee_GP2Y+0x4c>
    1bc8:	00812083          	lw	ra,8(sp)
    1bcc:	00412403          	lw	s0,4(sp)
    1bd0:	0406a783          	lw	a5,64(a3)
    1bd4:	00c10113          	addi	sp,sp,12
    1bd8:	00008067          	ret

00001bdc <lee_MCP_diferencial>:
    1bdc:	00300793          	li	a5,3
    1be0:	00a7e663          	bltu	a5,a0,1bec <lee_MCP_diferencial+0x10>
    1be4:	00000593          	li	a1,0
    1be8:	c9dff06f          	j	1884 <lee_MCP_ADC.part.0>
    1bec:	00000513          	li	a0,0
    1bf0:	00008067          	ret

00001bf4 <spi1xfer>:
    1bf4:	e00007b7          	lui	a5,0xe0000
    1bf8:	06a7a023          	sw	a0,96(a5) # e0000060 <_ebss+0xdfffc318>
    1bfc:	e0000737          	lui	a4,0xe0000
    1c00:	06472783          	lw	a5,100(a4) # e0000064 <_ebss+0xdfffc31c>
    1c04:	0017f793          	andi	a5,a5,1
    1c08:	fe079ce3          	bnez	a5,1c00 <spi1xfer+0xc>
    1c0c:	06072503          	lw	a0,96(a4)
    1c10:	0ff57513          	zext.b	a0,a0
    1c14:	00008067          	ret

00001c18 <SPI_TRANSFER_BUF>:
    1c18:	ff410113          	addi	sp,sp,-12
    1c1c:	00812223          	sw	s0,4(sp)
    1c20:	00912023          	sw	s1,0(sp)
    1c24:	00112423          	sw	ra,8(sp)
    1c28:	00050413          	mv	s0,a0
    1c2c:	00b504b3          	add	s1,a0,a1
    1c30:	00941c63          	bne	s0,s1,1c48 <SPI_TRANSFER_BUF+0x30>
    1c34:	00812083          	lw	ra,8(sp)
    1c38:	00412403          	lw	s0,4(sp)
    1c3c:	00012483          	lw	s1,0(sp)
    1c40:	00c10113          	addi	sp,sp,12
    1c44:	00008067          	ret
    1c48:	00044503          	lbu	a0,0(s0)
    1c4c:	00140413          	addi	s0,s0,1
    1c50:	fa5ff0ef          	jal	ra,1bf4 <spi1xfer>
    1c54:	fea40fa3          	sb	a0,-1(s0)
    1c58:	fd9ff06f          	j	1c30 <SPI_TRANSFER_BUF+0x18>

00001c5c <SX1262_waitForRadioCommandCompletion>:
    1c5c:	fec10113          	addi	sp,sp,-20
    1c60:	e00007b7          	lui	a5,0xe0000
    1c64:	00912423          	sw	s1,8(sp)
    1c68:	0407a483          	lw	s1,64(a5) # e0000040 <_ebss+0xdfffc2f8>
    1c6c:	00812623          	sw	s0,12(sp)
    1c70:	00004437          	lui	s0,0x4
    1c74:	00112823          	sw	ra,16(sp)
    1c78:	00a12023          	sw	a0,0(sp)
    1c7c:	c1840413          	addi	s0,s0,-1000 # 3c18 <udat0>
    1c80:	00007537          	lui	a0,0x7
    1c84:	52650513          	addi	a0,a0,1318 # 7526 <_ebss+0x37de>
    1c88:	bd8fe0ef          	jal	ra,60 <delay_loop>
    1c8c:	e00006b7          	lui	a3,0xe0000
    1c90:	0346a783          	lw	a5,52(a3) # e0000034 <_ebss+0xdfffc2ec>
    1c94:	0017f793          	andi	a5,a5,1
    1c98:	fe079ce3          	bnez	a5,1c90 <SX1262_waitForRadioCommandCompletion+0x34>
    1c9c:	0606a423          	sw	zero,104(a3)
    1ca0:	0c000793          	li	a5,192
    1ca4:	00200593          	li	a1,2
    1ca8:	06040513          	addi	a0,s0,96
    1cac:	06f41023          	sh	a5,96(s0)
    1cb0:	f69ff0ef          	jal	ra,1c18 <SPI_TRANSFER_BUF>
    1cb4:	00100613          	li	a2,1
    1cb8:	e00006b7          	lui	a3,0xe0000
    1cbc:	06c6a423          	sw	a2,104(a3) # e0000068 <_ebss+0xdfffc320>
    1cc0:	06144703          	lbu	a4,97(s0)
    1cc4:	00475793          	srli	a5,a4,0x4
    1cc8:	0077f793          	andi	a5,a5,7
    1ccc:	ffe78793          	addi	a5,a5,-2
    1cd0:	0ff7f793          	zext.b	a5,a5
    1cd4:	02f66a63          	bltu	a2,a5,1d08 <SX1262_waitForRadioCommandCompletion+0xac>
    1cd8:	0406a503          	lw	a0,64(a3)
    1cdc:	000045b7          	lui	a1,0x4
    1ce0:	65058593          	addi	a1,a1,1616 # 4650 <_ebss+0x908>
    1ce4:	40950533          	sub	a0,a0,s1
    1ce8:	445000ef          	jal	ra,292c <__hidden___udivsi3>
    1cec:	00012783          	lw	a5,0(sp)
    1cf0:	00f53533          	sltu	a0,a0,a5
    1cf4:	01012083          	lw	ra,16(sp)
    1cf8:	00c12403          	lw	s0,12(sp)
    1cfc:	00812483          	lw	s1,8(sp)
    1d00:	01410113          	addi	sp,sp,20
    1d04:	00008067          	ret
    1d08:	0406a503          	lw	a0,64(a3)
    1d0c:	00175713          	srli	a4,a4,0x1
    1d10:	000045b7          	lui	a1,0x4
    1d14:	00777713          	andi	a4,a4,7
    1d18:	65058593          	addi	a1,a1,1616 # 4650 <_ebss+0x908>
    1d1c:	40950533          	sub	a0,a0,s1
    1d20:	00e12223          	sw	a4,4(sp)
    1d24:	409000ef          	jal	ra,292c <__hidden___udivsi3>
    1d28:	00012783          	lw	a5,0(sp)
    1d2c:	00f57c63          	bgeu	a0,a5,1d44 <SX1262_waitForRadioCommandCompletion+0xe8>
    1d30:	00412703          	lw	a4,4(sp)
    1d34:	00200793          	li	a5,2
    1d38:	f4e7f4e3          	bgeu	a5,a4,1c80 <SX1262_waitForRadioCommandCompletion+0x24>
    1d3c:	00100513          	li	a0,1
    1d40:	fb5ff06f          	j	1cf4 <SX1262_waitForRadioCommandCompletion+0x98>
    1d44:	00000513          	li	a0,0
    1d48:	fadff06f          	j	1cf4 <SX1262_waitForRadioCommandCompletion+0x98>

00001d4c <SX1262_transmit>:
    1d4c:	fe010113          	addi	sp,sp,-32
    1d50:	00112e23          	sw	ra,28(sp)
    1d54:	00812c23          	sw	s0,24(sp)
    1d58:	00912a23          	sw	s1,20(sp)
    1d5c:	00a12423          	sw	a0,8(sp)
    1d60:	0ff00793          	li	a5,255
    1d64:	0ff00713          	li	a4,255
    1d68:	00b7c463          	blt	a5,a1,1d70 <SX1262_transmit+0x24>
    1d6c:	00058713          	mv	a4,a1
    1d70:	e00007b7          	lui	a5,0xe0000
    1d74:	0307a683          	lw	a3,48(a5) # e0000030 <_ebss+0xdfffc2e8>
    1d78:	e00004b7          	lui	s1,0xe0000
    1d7c:	dff6f693          	andi	a3,a3,-513
    1d80:	02d7a823          	sw	a3,48(a5)
    1d84:	0307a683          	lw	a3,48(a5)
    1d88:	1006e693          	ori	a3,a3,256
    1d8c:	02d7a823          	sw	a3,48(a5)
    1d90:	0344a783          	lw	a5,52(s1) # e0000034 <_ebss+0xdfffc2ec>
    1d94:	0017f793          	andi	a5,a5,1
    1d98:	fe079ce3          	bnez	a5,1d90 <SX1262_transmit+0x44>
    1d9c:	00004437          	lui	s0,0x4
    1da0:	000807b7          	lui	a5,0x80
    1da4:	0604a423          	sw	zero,104(s1)
    1da8:	c1840513          	addi	a0,s0,-1000 # 3c18 <udat0>
    1dac:	08c78793          	addi	a5,a5,140 # 8008c <_ebss+0x7c344>
    1db0:	06f52023          	sw	a5,96(a0)
    1db4:	0ff77793          	zext.b	a5,a4
    1db8:	06f50223          	sb	a5,100(a0)
    1dbc:	060502a3          	sb	zero,101(a0)
    1dc0:	06050323          	sb	zero,102(a0)
    1dc4:	00700593          	li	a1,7
    1dc8:	06050513          	addi	a0,a0,96
    1dcc:	00e12623          	sw	a4,12(sp)
    1dd0:	00f12223          	sw	a5,4(sp)
    1dd4:	e45ff0ef          	jal	ra,1c18 <SPI_TRANSFER_BUF>
    1dd8:	00100793          	li	a5,1
    1ddc:	06f4a423          	sw	a5,104(s1)
    1de0:	06400513          	li	a0,100
    1de4:	e79ff0ef          	jal	ra,1c5c <SX1262_waitForRadioCommandCompletion>
    1de8:	000044b7          	lui	s1,0x4
    1dec:	00c12703          	lw	a4,12(sp)
    1df0:	c7848793          	addi	a5,s1,-904 # 3c78 <SX1262_spiBuff>
    1df4:	c1840413          	addi	s0,s0,-1000
    1df8:	00f12023          	sw	a5,0(sp)
    1dfc:	e00006b7          	lui	a3,0xe0000
    1e00:	0346a783          	lw	a5,52(a3) # e0000034 <_ebss+0xdfffc2ec>
    1e04:	0017f793          	andi	a5,a5,1
    1e08:	fe079ce3          	bnez	a5,1e00 <SX1262_transmit+0xb4>
    1e0c:	00012503          	lw	a0,0(sp)
    1e10:	00e12623          	sw	a4,12(sp)
    1e14:	0606a423          	sw	zero,104(a3)
    1e18:	00e00793          	li	a5,14
    1e1c:	00200593          	li	a1,2
    1e20:	06f41023          	sh	a5,96(s0)
    1e24:	df5ff0ef          	jal	ra,1c18 <SPI_TRANSFER_BUF>
    1e28:	00c12703          	lw	a4,12(sp)
    1e2c:	00000493          	li	s1,0
    1e30:	02000593          	li	a1,32
    1e34:	00004637          	lui	a2,0x4
    1e38:	06e4c863          	blt	s1,a4,1ea8 <SX1262_transmit+0x15c>
    1e3c:	e00007b7          	lui	a5,0xe0000
    1e40:	00100713          	li	a4,1
    1e44:	06e7a423          	sw	a4,104(a5) # e0000068 <_ebss+0xdfffc320>
    1e48:	3e800513          	li	a0,1000
    1e4c:	e11ff0ef          	jal	ra,1c5c <SX1262_waitForRadioCommandCompletion>
    1e50:	e00004b7          	lui	s1,0xe0000
    1e54:	0344a703          	lw	a4,52(s1) # e0000034 <_ebss+0xdfffc2ec>
    1e58:	00177713          	andi	a4,a4,1
    1e5c:	fe071ce3          	bnez	a4,1e54 <SX1262_transmit+0x108>
    1e60:	00012503          	lw	a0,0(sp)
    1e64:	0604a423          	sw	zero,104(s1)
    1e68:	f8300713          	li	a4,-125
    1e6c:	00400593          	li	a1,4
    1e70:	06e42023          	sw	a4,96(s0)
    1e74:	da5ff0ef          	jal	ra,1c18 <SPI_TRANSFER_BUF>
    1e78:	00100713          	li	a4,1
    1e7c:	06e4a423          	sw	a4,104(s1)
    1e80:	000047b7          	lui	a5,0x4
    1e84:	d207a503          	lw	a0,-736(a5) # 3d20 <SX1262_transmitTimeout>
    1e88:	dd5ff0ef          	jal	ra,1c5c <SX1262_waitForRadioCommandCompletion>
    1e8c:	01c12083          	lw	ra,28(sp)
    1e90:	01812403          	lw	s0,24(sp)
    1e94:	000047b7          	lui	a5,0x4
    1e98:	d0078e23          	sb	zero,-740(a5) # 3d1c <SX1262_inReceiveMode>
    1e9c:	01412483          	lw	s1,20(sp)
    1ea0:	02010113          	addi	sp,sp,32
    1ea4:	00008067          	ret
    1ea8:	009586b3          	add	a3,a1,s1
    1eac:	00d75863          	bge	a4,a3,1ebc <SX1262_transmit+0x170>
    1eb0:	00412783          	lw	a5,4(sp)
    1eb4:	409785b3          	sub	a1,a5,s1
    1eb8:	0ff5f593          	zext.b	a1,a1
    1ebc:	00812783          	lw	a5,8(sp)
    1ec0:	00000693          	li	a3,0
    1ec4:	00978533          	add	a0,a5,s1
    1ec8:	d0d62c23          	sw	a3,-744(a2) # 3d18 <iii>
    1ecc:	02b6c863          	blt	a3,a1,1efc <SX1262_transmit+0x1b0>
    1ed0:	00012503          	lw	a0,0(sp)
    1ed4:	00e12823          	sw	a4,16(sp)
    1ed8:	00b12623          	sw	a1,12(sp)
    1edc:	d3dff0ef          	jal	ra,1c18 <SPI_TRANSFER_BUF>
    1ee0:	00c12583          	lw	a1,12(sp)
    1ee4:	01012703          	lw	a4,16(sp)
    1ee8:	00004637          	lui	a2,0x4
    1eec:	009587b3          	add	a5,a1,s1
    1ef0:	01079493          	slli	s1,a5,0x10
    1ef4:	0104d493          	srli	s1,s1,0x10
    1ef8:	f41ff06f          	j	1e38 <SX1262_transmit+0xec>
    1efc:	00d50333          	add	t1,a0,a3
    1f00:	00034283          	lbu	t0,0(t1)
    1f04:	00d40333          	add	t1,s0,a3
    1f08:	00168693          	addi	a3,a3,1
    1f0c:	06530023          	sb	t0,96(t1)
    1f10:	fb9ff06f          	j	1ec8 <SX1262_transmit+0x17c>

00001f14 <SX1262_setModeReceive>:
    1f14:	e00007b7          	lui	a5,0xe0000
    1f18:	0307a703          	lw	a4,48(a5) # e0000030 <_ebss+0xdfffc2e8>
    1f1c:	ff410113          	addi	sp,sp,-12
    1f20:	00912023          	sw	s1,0(sp)
    1f24:	00112423          	sw	ra,8(sp)
    1f28:	00812223          	sw	s0,4(sp)
    1f2c:	20076713          	ori	a4,a4,512
    1f30:	02e7a823          	sw	a4,48(a5)
    1f34:	0307a703          	lw	a4,48(a5)
    1f38:	000044b7          	lui	s1,0x4
    1f3c:	eff77713          	andi	a4,a4,-257
    1f40:	02e7a823          	sw	a4,48(a5)
    1f44:	d1c4c783          	lbu	a5,-740(s1) # 3d1c <SX1262_inReceiveMode>
    1f48:	0a079063          	bnez	a5,1fe8 <SX1262_setModeReceive+0xd4>
    1f4c:	e00007b7          	lui	a5,0xe0000
    1f50:	0347a703          	lw	a4,52(a5) # e0000034 <_ebss+0xdfffc2ec>
    1f54:	00177713          	andi	a4,a4,1
    1f58:	fe071ce3          	bnez	a4,1f50 <SX1262_setModeReceive+0x3c>
    1f5c:	00004437          	lui	s0,0x4
    1f60:	00080737          	lui	a4,0x80
    1f64:	0607a423          	sw	zero,104(a5)
    1f68:	c1840513          	addi	a0,s0,-1000 # 3c18 <udat0>
    1f6c:	08c70713          	addi	a4,a4,140 # 8008c <_ebss+0x7c344>
    1f70:	06e52023          	sw	a4,96(a0)
    1f74:	0ff00713          	li	a4,255
    1f78:	06e51223          	sh	a4,100(a0)
    1f7c:	06050323          	sb	zero,102(a0)
    1f80:	00700593          	li	a1,7
    1f84:	06050513          	addi	a0,a0,96
    1f88:	c91ff0ef          	jal	ra,1c18 <SPI_TRANSFER_BUF>
    1f8c:	e00007b7          	lui	a5,0xe0000
    1f90:	00100713          	li	a4,1
    1f94:	06e7a423          	sw	a4,104(a5) # e0000068 <_ebss+0xdfffc320>
    1f98:	06400513          	li	a0,100
    1f9c:	cc1ff0ef          	jal	ra,1c5c <SX1262_waitForRadioCommandCompletion>
    1fa0:	c1840413          	addi	s0,s0,-1000
    1fa4:	00004537          	lui	a0,0x4
    1fa8:	e00007b7          	lui	a5,0xe0000
    1fac:	0347a703          	lw	a4,52(a5) # e0000034 <_ebss+0xdfffc2ec>
    1fb0:	00177713          	andi	a4,a4,1
    1fb4:	fe071ce3          	bnez	a4,1fac <SX1262_setModeReceive+0x98>
    1fb8:	0607a423          	sw	zero,104(a5)
    1fbc:	f8200713          	li	a4,-126
    1fc0:	00400593          	li	a1,4
    1fc4:	c7850513          	addi	a0,a0,-904 # 3c78 <SX1262_spiBuff>
    1fc8:	06e42023          	sw	a4,96(s0)
    1fcc:	c4dff0ef          	jal	ra,1c18 <SPI_TRANSFER_BUF>
    1fd0:	00100413          	li	s0,1
    1fd4:	e00007b7          	lui	a5,0xe0000
    1fd8:	0687a423          	sw	s0,104(a5) # e0000068 <_ebss+0xdfffc320>
    1fdc:	06400513          	li	a0,100
    1fe0:	c7dff0ef          	jal	ra,1c5c <SX1262_waitForRadioCommandCompletion>
    1fe4:	d0848e23          	sb	s0,-740(s1)
    1fe8:	00812083          	lw	ra,8(sp)
    1fec:	00412403          	lw	s0,4(sp)
    1ff0:	00012483          	lw	s1,0(sp)
    1ff4:	00c10113          	addi	sp,sp,12
    1ff8:	00008067          	ret

00001ffc <SX1262_lora_receive_async>:
    1ffc:	ff010113          	addi	sp,sp,-16
    2000:	00812423          	sw	s0,8(sp)
    2004:	00a12023          	sw	a0,0(sp)
    2008:	00112623          	sw	ra,12(sp)
    200c:	00912223          	sw	s1,4(sp)
    2010:	00058413          	mv	s0,a1
    2014:	f01ff0ef          	jal	ra,1f14 <SX1262_setModeReceive>
    2018:	e00007b7          	lui	a5,0xe0000
    201c:	0347a783          	lw	a5,52(a5) # e0000034 <_ebss+0xdfffc2ec>
    2020:	fff00513          	li	a0,-1
    2024:	0027f793          	andi	a5,a5,2
    2028:	18078663          	beqz	a5,21b4 <SX1262_lora_receive_async+0x1b8>
    202c:	e00007b7          	lui	a5,0xe0000
    2030:	0347a783          	lw	a5,52(a5) # e0000034 <_ebss+0xdfffc2ec>
    2034:	000046b7          	lui	a3,0x4
    2038:	0027f793          	andi	a5,a5,2
    203c:	04078263          	beqz	a5,2080 <SX1262_lora_receive_async+0x84>
    2040:	e00004b7          	lui	s1,0xe0000
    2044:	0344a703          	lw	a4,52(s1) # e0000034 <_ebss+0xdfffc2ec>
    2048:	00177713          	andi	a4,a4,1
    204c:	fe071ce3          	bnez	a4,2044 <SX1262_lora_receive_async+0x48>
    2050:	c1868513          	addi	a0,a3,-1000 # 3c18 <udat0>
    2054:	0604a423          	sw	zero,104(s1)
    2058:	f0200713          	li	a4,-254
    205c:	06e51023          	sh	a4,96(a0)
    2060:	fff00713          	li	a4,-1
    2064:	06e50123          	sb	a4,98(a0)
    2068:	00300593          	li	a1,3
    206c:	06050513          	addi	a0,a0,96
    2070:	ba9ff0ef          	jal	ra,1c18 <SPI_TRANSFER_BUF>
    2074:	00100713          	li	a4,1
    2078:	06e4a423          	sw	a4,104(s1)
    207c:	fb1ff06f          	j	202c <SX1262_lora_receive_async+0x30>
    2080:	e00006b7          	lui	a3,0xe0000
    2084:	0346a783          	lw	a5,52(a3) # e0000034 <_ebss+0xdfffc2ec>
    2088:	0017f793          	andi	a5,a5,1
    208c:	fe079ce3          	bnez	a5,2084 <SX1262_lora_receive_async+0x88>
    2090:	000044b7          	lui	s1,0x4
    2094:	c1848793          	addi	a5,s1,-1000 # 3c18 <udat0>
    2098:	0606a423          	sw	zero,104(a3)
    209c:	f1400613          	li	a2,-236
    20a0:	06c7a023          	sw	a2,96(a5)
    20a4:	06078513          	addi	a0,a5,96
    20a8:	fff00613          	li	a2,-1
    20ac:	00500593          	li	a1,5
    20b0:	06c78223          	sb	a2,100(a5)
    20b4:	b65ff0ef          	jal	ra,1c18 <SPI_TRANSFER_BUF>
    20b8:	00100613          	li	a2,1
    20bc:	e00006b7          	lui	a3,0xe0000
    20c0:	06c6a423          	sw	a2,104(a3) # e0000068 <_ebss+0xdfffc320>
    20c4:	c1848793          	addi	a5,s1,-1000
    20c8:	0627c583          	lbu	a1,98(a5)
    20cc:	000046b7          	lui	a3,0x4
    20d0:	00003537          	lui	a0,0x3
    20d4:	4015d593          	srai	a1,a1,0x1
    20d8:	40b005b3          	neg	a1,a1
    20dc:	d2b6aa23          	sw	a1,-716(a3) # 3d34 <SX1262_rssi>
    20e0:	06378683          	lb	a3,99(a5)
    20e4:	0647c783          	lbu	a5,100(a5)
    20e8:	22850513          	addi	a0,a0,552 # 3228 <main+0x850>
    20ec:	41f6d613          	srai	a2,a3,0x1f
    20f0:	00367613          	andi	a2,a2,3
    20f4:	00d60633          	add	a2,a2,a3
    20f8:	40265613          	srai	a2,a2,0x2
    20fc:	000046b7          	lui	a3,0x4
    2100:	4017d793          	srai	a5,a5,0x1
    2104:	d2c6a823          	sw	a2,-720(a3) # 3d30 <SX1262_snr>
    2108:	40f007b3          	neg	a5,a5
    210c:	000046b7          	lui	a3,0x4
    2110:	d2f6a623          	sw	a5,-724(a3) # 3d2c <SX1262_signalRssi>
    2114:	b8dfe0ef          	jal	ra,ca0 <_printf>
    2118:	00004537          	lui	a0,0x4
    211c:	c1848713          	addi	a4,s1,-1000
    2120:	c7850513          	addi	a0,a0,-904 # 3c78 <SX1262_spiBuff>
    2124:	e00004b7          	lui	s1,0xe0000
    2128:	0344a683          	lw	a3,52(s1) # e0000034 <_ebss+0xdfffc2ec>
    212c:	0016f693          	andi	a3,a3,1
    2130:	fe069ce3          	bnez	a3,2128 <SX1262_lora_receive_async+0x12c>
    2134:	0604a423          	sw	zero,104(s1)
    2138:	f1300693          	li	a3,-237
    213c:	00400593          	li	a1,4
    2140:	06d72023          	sw	a3,96(a4)
    2144:	ad5ff0ef          	jal	ra,1c18 <SPI_TRANSFER_BUF>
    2148:	000047b7          	lui	a5,0x4
    214c:	00100693          	li	a3,1
    2150:	c1878713          	addi	a4,a5,-1000 # 3c18 <udat0>
    2154:	06d4a423          	sw	a3,104(s1)
    2158:	06274483          	lbu	s1,98(a4)
    215c:	000047b7          	lui	a5,0x4
    2160:	06374603          	lbu	a2,99(a4)
    2164:	c7878513          	addi	a0,a5,-904 # 3c78 <SX1262_spiBuff>
    2168:	00945463          	bge	s0,s1,2170 <SX1262_lora_receive_async+0x174>
    216c:	0ff47493          	zext.b	s1,s0
    2170:	e0000437          	lui	s0,0xe0000
    2174:	03442683          	lw	a3,52(s0) # e0000034 <_ebss+0xdfffc2ec>
    2178:	0016f693          	andi	a3,a3,1
    217c:	fe069ce3          	bnez	a3,2174 <SX1262_lora_receive_async+0x178>
    2180:	06042423          	sw	zero,104(s0)
    2184:	01e00693          	li	a3,30
    2188:	00300593          	li	a1,3
    218c:	06d70023          	sb	a3,96(a4)
    2190:	06c700a3          	sb	a2,97(a4)
    2194:	06070123          	sb	zero,98(a4)
    2198:	a81ff0ef          	jal	ra,1c18 <SPI_TRANSFER_BUF>
    219c:	00012503          	lw	a0,0(sp)
    21a0:	00048593          	mv	a1,s1
    21a4:	a75ff0ef          	jal	ra,1c18 <SPI_TRANSFER_BUF>
    21a8:	00100713          	li	a4,1
    21ac:	06e42423          	sw	a4,104(s0)
    21b0:	00048513          	mv	a0,s1
    21b4:	00c12083          	lw	ra,12(sp)
    21b8:	00812403          	lw	s0,8(sp)
    21bc:	00412483          	lw	s1,4(sp)
    21c0:	01010113          	addi	sp,sp,16
    21c4:	00008067          	ret

000021c8 <SX1262_lora_receive_blocking>:
    21c8:	fe810113          	addi	sp,sp,-24
    21cc:	00812823          	sw	s0,16(sp)
    21d0:	00912623          	sw	s1,12(sp)
    21d4:	00112a23          	sw	ra,20(sp)
    21d8:	00a12023          	sw	a0,0(sp)
    21dc:	00b12223          	sw	a1,4(sp)
    21e0:	00060413          	mv	s0,a2
    21e4:	d31ff0ef          	jal	ra,1f14 <SX1262_setModeReceive>
    21e8:	e00007b7          	lui	a5,0xe0000
    21ec:	0407a683          	lw	a3,64(a5) # e0000040 <_ebss+0xdfffc2f8>
    21f0:	e00004b7          	lui	s1,0xe0000
    21f4:	0344a783          	lw	a5,52(s1) # e0000034 <_ebss+0xdfffc2ec>
    21f8:	0027f793          	andi	a5,a5,2
    21fc:	02078063          	beqz	a5,221c <SX1262_lora_receive_blocking+0x54>
    2200:	01012403          	lw	s0,16(sp)
    2204:	00412583          	lw	a1,4(sp)
    2208:	00012503          	lw	a0,0(sp)
    220c:	01412083          	lw	ra,20(sp)
    2210:	00c12483          	lw	s1,12(sp)
    2214:	01810113          	addi	sp,sp,24
    2218:	de5ff06f          	j	1ffc <SX1262_lora_receive_async>
    221c:	fc040ce3          	beqz	s0,21f4 <SX1262_lora_receive_blocking+0x2c>
    2220:	0404a503          	lw	a0,64(s1)
    2224:	000045b7          	lui	a1,0x4
    2228:	65058593          	addi	a1,a1,1616 # 4650 <_ebss+0x908>
    222c:	40d50533          	sub	a0,a0,a3
    2230:	00d12423          	sw	a3,8(sp)
    2234:	6f8000ef          	jal	ra,292c <__hidden___udivsi3>
    2238:	00812683          	lw	a3,8(sp)
    223c:	fa856ce3          	bltu	a0,s0,21f4 <SX1262_lora_receive_blocking+0x2c>
    2240:	01412083          	lw	ra,20(sp)
    2244:	01012403          	lw	s0,16(sp)
    2248:	00c12483          	lw	s1,12(sp)
    224c:	fff00513          	li	a0,-1
    2250:	01810113          	addi	sp,sp,24
    2254:	00008067          	ret

00002258 <SX1262_updateModulationParameters>:
    2258:	ff410113          	addi	sp,sp,-12
    225c:	00812223          	sw	s0,4(sp)
    2260:	00112423          	sw	ra,8(sp)
    2264:	00912023          	sw	s1,0(sp)
    2268:	e0000437          	lui	s0,0xe0000
    226c:	03442783          	lw	a5,52(s0) # e0000034 <_ebss+0xdfffc2ec>
    2270:	0017f793          	andi	a5,a5,1
    2274:	fe079ce3          	bnez	a5,226c <SX1262_updateModulationParameters+0x14>
    2278:	00004537          	lui	a0,0x4
    227c:	06042423          	sw	zero,104(s0)
    2280:	c1850513          	addi	a0,a0,-1000 # 3c18 <udat0>
    2284:	f8b00793          	li	a5,-117
    2288:	000044b7          	lui	s1,0x4
    228c:	06f50023          	sb	a5,96(a0)
    2290:	d254c783          	lbu	a5,-731(s1) # 3d25 <SX1262_spreadingFactor>
    2294:	00500593          	li	a1,5
    2298:	06050513          	addi	a0,a0,96
    229c:	00f500a3          	sb	a5,1(a0)
    22a0:	000047b7          	lui	a5,0x4
    22a4:	d277c783          	lbu	a5,-729(a5) # 3d27 <SX1262_bandwidth>
    22a8:	00f50123          	sb	a5,2(a0)
    22ac:	000047b7          	lui	a5,0x4
    22b0:	d267c783          	lbu	a5,-730(a5) # 3d26 <SX1262_codingRate>
    22b4:	00f501a3          	sb	a5,3(a0)
    22b8:	000047b7          	lui	a5,0x4
    22bc:	d247c783          	lbu	a5,-732(a5) # 3d24 <SX1262_lowDataRateOptimize>
    22c0:	00f50223          	sb	a5,4(a0)
    22c4:	955ff0ef          	jal	ra,1c18 <SPI_TRANSFER_BUF>
    22c8:	00100793          	li	a5,1
    22cc:	00092537          	lui	a0,0x92
    22d0:	06f42423          	sw	a5,104(s0)
    22d4:	7b650513          	addi	a0,a0,1974 # 927b6 <_ebss+0x8ea6e>
    22d8:	d89fd0ef          	jal	ra,60 <delay_loop>
    22dc:	d254c783          	lbu	a5,-731(s1)
    22e0:	00600713          	li	a4,6
    22e4:	ffa78793          	addi	a5,a5,-6
    22e8:	0ff7f793          	zext.b	a5,a5
    22ec:	06f76e63          	bltu	a4,a5,2368 <SX1262_updateModulationParameters+0x110>
    22f0:	00003737          	lui	a4,0x3
    22f4:	00279793          	slli	a5,a5,0x2
    22f8:	0a870713          	addi	a4,a4,168 # 30a8 <main+0x6d0>
    22fc:	00e787b3          	add	a5,a5,a4
    2300:	0007a783          	lw	a5,0(a5)
    2304:	00078067          	jr	a5
    2308:	000277b7          	lui	a5,0x27
    230c:	10078793          	addi	a5,a5,256 # 27100 <_ebss+0x233b8>
    2310:	00812083          	lw	ra,8(sp)
    2314:	00412403          	lw	s0,4(sp)
    2318:	00004737          	lui	a4,0x4
    231c:	d2f72023          	sw	a5,-736(a4) # 3d20 <SX1262_transmitTimeout>
    2320:	00012483          	lw	s1,0(sp)
    2324:	00c10113          	addi	sp,sp,12
    2328:	00008067          	ret
    232c:	0000f7b7          	lui	a5,0xf
    2330:	a6078793          	addi	a5,a5,-1440 # ea60 <_ebss+0xad18>
    2334:	fddff06f          	j	2310 <SX1262_updateModulationParameters+0xb8>
    2338:	0000a7b7          	lui	a5,0xa
    233c:	c4078793          	addi	a5,a5,-960 # 9c40 <_ebss+0x5ef8>
    2340:	fd1ff06f          	j	2310 <SX1262_updateModulationParameters+0xb8>
    2344:	000057b7          	lui	a5,0x5
    2348:	e2078793          	addi	a5,a5,-480 # 4e20 <_ebss+0x10d8>
    234c:	fc5ff06f          	j	2310 <SX1262_updateModulationParameters+0xb8>
    2350:	000037b7          	lui	a5,0x3
    2354:	ee078793          	addi	a5,a5,-288 # 2ee0 <main+0x508>
    2358:	fb9ff06f          	j	2310 <SX1262_updateModulationParameters+0xb8>
    235c:	000027b7          	lui	a5,0x2
    2360:	b5878793          	addi	a5,a5,-1192 # 1b58 <lee_MCP_multiple+0x40>
    2364:	fadff06f          	j	2310 <SX1262_updateModulationParameters+0xb8>
    2368:	000017b7          	lui	a5,0x1
    236c:	38878793          	addi	a5,a5,904 # 1388 <devuelve_temp+0xc4>
    2370:	fa1ff06f          	j	2310 <SX1262_updateModulationParameters+0xb8>
    2374:	0003e7b7          	lui	a5,0x3e
    2378:	86078793          	addi	a5,a5,-1952 # 3d860 <_ebss+0x39b18>
    237c:	f95ff06f          	j	2310 <SX1262_updateModulationParameters+0xb8>

00002380 <SX1262_configSetPreset>:
    2380:	ff410113          	addi	sp,sp,-12
    2384:	00112423          	sw	ra,8(sp)
    2388:	02051a63          	bnez	a0,23bc <SX1262_configSetPreset+0x3c>
    238c:	000047b7          	lui	a5,0x4
    2390:	00400713          	li	a4,4
    2394:	d2e783a3          	sb	a4,-729(a5) # 3d27 <SX1262_bandwidth>
    2398:	000047b7          	lui	a5,0x4
    239c:	00100713          	li	a4,1
    23a0:	d2e78323          	sb	a4,-730(a5) # 3d26 <SX1262_codingRate>
    23a4:	000047b7          	lui	a5,0x4
    23a8:	00700713          	li	a4,7
    23ac:	d2e782a3          	sb	a4,-731(a5) # 3d25 <SX1262_spreadingFactor>
    23b0:	000047b7          	lui	a5,0x4
    23b4:	d2078223          	sb	zero,-732(a5) # 3d24 <SX1262_lowDataRateOptimize>
    23b8:	0380006f          	j	23f0 <SX1262_configSetPreset+0x70>
    23bc:	00100713          	li	a4,1
    23c0:	00050793          	mv	a5,a0
    23c4:	04e51063          	bne	a0,a4,2404 <SX1262_configSetPreset+0x84>
    23c8:	00004737          	lui	a4,0x4
    23cc:	00400693          	li	a3,4
    23d0:	d2d703a3          	sb	a3,-729(a4) # 3d27 <SX1262_bandwidth>
    23d4:	00004737          	lui	a4,0x4
    23d8:	d2a70323          	sb	a0,-730(a4) # 3d26 <SX1262_codingRate>
    23dc:	00c00693          	li	a3,12
    23e0:	00004737          	lui	a4,0x4
    23e4:	d2d702a3          	sb	a3,-731(a4) # 3d25 <SX1262_spreadingFactor>
    23e8:	00004737          	lui	a4,0x4
    23ec:	d2a70223          	sb	a0,-732(a4) # 3d24 <SX1262_lowDataRateOptimize>
    23f0:	e69ff0ef          	jal	ra,2258 <SX1262_updateModulationParameters>
    23f4:	00100513          	li	a0,1
    23f8:	00812083          	lw	ra,8(sp)
    23fc:	00c10113          	addi	sp,sp,12
    2400:	00008067          	ret
    2404:	00200693          	li	a3,2
    2408:	00000513          	li	a0,0
    240c:	fed796e3          	bne	a5,a3,23f8 <SX1262_configSetPreset+0x78>
    2410:	000047b7          	lui	a5,0x4
    2414:	00600693          	li	a3,6
    2418:	d2d783a3          	sb	a3,-729(a5) # 3d27 <SX1262_bandwidth>
    241c:	000047b7          	lui	a5,0x4
    2420:	d2e78323          	sb	a4,-730(a5) # 3d26 <SX1262_codingRate>
    2424:	000047b7          	lui	a5,0x4
    2428:	00500713          	li	a4,5
    242c:	f81ff06f          	j	23ac <SX1262_configSetPreset+0x2c>

00002430 <SX1262_configSetBandwidth>:
    2430:	00a00713          	li	a4,10
    2434:	02a76c63          	bltu	a4,a0,246c <SX1262_configSetBandwidth+0x3c>
    2438:	00050793          	mv	a5,a0
    243c:	00700713          	li	a4,7
    2440:	00000513          	li	a0,0
    2444:	02e78863          	beq	a5,a4,2474 <SX1262_configSetBandwidth+0x44>
    2448:	ff410113          	addi	sp,sp,-12
    244c:	00004737          	lui	a4,0x4
    2450:	00112423          	sw	ra,8(sp)
    2454:	d2f703a3          	sb	a5,-729(a4) # 3d27 <SX1262_bandwidth>
    2458:	e01ff0ef          	jal	ra,2258 <SX1262_updateModulationParameters>
    245c:	00812083          	lw	ra,8(sp)
    2460:	00100513          	li	a0,1
    2464:	00c10113          	addi	sp,sp,12
    2468:	00008067          	ret
    246c:	00000513          	li	a0,0
    2470:	00008067          	ret
    2474:	00008067          	ret

00002478 <SX1262_configSetCodingRate>:
    2478:	fff50713          	addi	a4,a0,-1
    247c:	00300793          	li	a5,3
    2480:	02e7e463          	bltu	a5,a4,24a8 <SX1262_configSetCodingRate+0x30>
    2484:	ff410113          	addi	sp,sp,-12
    2488:	000047b7          	lui	a5,0x4
    248c:	00112423          	sw	ra,8(sp)
    2490:	d2a78323          	sb	a0,-730(a5) # 3d26 <SX1262_codingRate>
    2494:	dc5ff0ef          	jal	ra,2258 <SX1262_updateModulationParameters>
    2498:	00812083          	lw	ra,8(sp)
    249c:	00100513          	li	a0,1
    24a0:	00c10113          	addi	sp,sp,12
    24a4:	00008067          	ret
    24a8:	00000513          	li	a0,0
    24ac:	00008067          	ret

000024b0 <SX1262_configSetSpreadingFactor>:
    24b0:	ffb50713          	addi	a4,a0,-5
    24b4:	00700793          	li	a5,7
    24b8:	02e7ec63          	bltu	a5,a4,24f0 <SX1262_configSetSpreadingFactor+0x40>
    24bc:	00b52793          	slti	a5,a0,11
    24c0:	0017c793          	xori	a5,a5,1
    24c4:	00004737          	lui	a4,0x4
    24c8:	ff410113          	addi	sp,sp,-12
    24cc:	d2f70223          	sb	a5,-732(a4) # 3d24 <SX1262_lowDataRateOptimize>
    24d0:	000047b7          	lui	a5,0x4
    24d4:	00112423          	sw	ra,8(sp)
    24d8:	d2a782a3          	sb	a0,-731(a5) # 3d25 <SX1262_spreadingFactor>
    24dc:	d7dff0ef          	jal	ra,2258 <SX1262_updateModulationParameters>
    24e0:	00812083          	lw	ra,8(sp)
    24e4:	00100513          	li	a0,1
    24e8:	00c10113          	addi	sp,sp,12
    24ec:	00008067          	ret
    24f0:	00000513          	li	a0,0
    24f4:	00008067          	ret

000024f8 <SX1262_configSetFrequency.part.0>:
    24f8:	ff410113          	addi	sp,sp,-12
    24fc:	00004737          	lui	a4,0x4
    2500:	364007b7          	lui	a5,0x36400
    2504:	00812223          	sw	s0,4(sp)
    2508:	00112423          	sw	ra,8(sp)
    250c:	d2f72423          	sw	a5,-728(a4) # 3d28 <SX1262_pllFrequency>
    2510:	e0000437          	lui	s0,0xe0000
    2514:	03442783          	lw	a5,52(s0) # e0000034 <_ebss+0xdfffc2ec>
    2518:	0017f793          	andi	a5,a5,1
    251c:	fe079ce3          	bnez	a5,2514 <SX1262_configSetFrequency.part.0+0x1c>
    2520:	00004537          	lui	a0,0x4
    2524:	06042423          	sw	zero,104(s0)
    2528:	c1850513          	addi	a0,a0,-1000 # 3c18 <udat0>
    252c:	f8600793          	li	a5,-122
    2530:	06f50023          	sb	a5,96(a0)
    2534:	d2872783          	lw	a5,-728(a4)
    2538:	00500593          	li	a1,5
    253c:	06050513          	addi	a0,a0,96
    2540:	0187d713          	srli	a4,a5,0x18
    2544:	00e500a3          	sb	a4,1(a0)
    2548:	0107d713          	srli	a4,a5,0x10
    254c:	00e50123          	sb	a4,2(a0)
    2550:	0087d713          	srli	a4,a5,0x8
    2554:	00e501a3          	sb	a4,3(a0)
    2558:	00f50223          	sb	a5,4(a0)
    255c:	ebcff0ef          	jal	ra,1c18 <SPI_TRANSFER_BUF>
    2560:	00100793          	li	a5,1
    2564:	00092537          	lui	a0,0x92
    2568:	06f42423          	sw	a5,104(s0)
    256c:	7b650513          	addi	a0,a0,1974 # 927b6 <_ebss+0x8ea6e>
    2570:	af1fd0ef          	jal	ra,60 <delay_loop>
    2574:	00812083          	lw	ra,8(sp)
    2578:	00412403          	lw	s0,4(sp)
    257c:	00100513          	li	a0,1
    2580:	00c10113          	addi	sp,sp,12
    2584:	00008067          	ret

00002588 <SX1262_configSetFrequency>:
    2588:	f70f37b7          	lui	a5,0xf70f3
    258c:	e8078793          	addi	a5,a5,-384 # f70f2e80 <_ebss+0xf70ef138>
    2590:	00f50533          	add	a0,a0,a5
    2594:	3047a7b7          	lui	a5,0x3047a
    2598:	e8078793          	addi	a5,a5,-384 # 30479e80 <_ebss+0x30476138>
    259c:	00a7e463          	bltu	a5,a0,25a4 <SX1262_configSetFrequency+0x1c>
    25a0:	f59ff06f          	j	24f8 <SX1262_configSetFrequency.part.0>
    25a4:	00000513          	li	a0,0
    25a8:	00008067          	ret

000025ac <SX1262_Init>:
    25ac:	ff010113          	addi	sp,sp,-16
    25b0:	00812423          	sw	s0,8(sp)
    25b4:	00912223          	sw	s1,4(sp)
    25b8:	e0000437          	lui	s0,0xe0000
    25bc:	00112623          	sw	ra,12(sp)
    25c0:	00100793          	li	a5,1
    25c4:	06f42423          	sw	a5,104(s0) # e0000068 <_ebss+0xdfffc320>
    25c8:	fff00793          	li	a5,-1
    25cc:	04f42023          	sw	a5,64(s0)
    25d0:	03042783          	lw	a5,48(s0)
    25d4:	0000f4b7          	lui	s1,0xf
    25d8:	a5648513          	addi	a0,s1,-1450 # ea56 <_ebss+0xad0e>
    25dc:	bff7f793          	andi	a5,a5,-1025
    25e0:	02f42823          	sw	a5,48(s0)
    25e4:	a7dfd0ef          	jal	ra,60 <delay_loop>
    25e8:	03042783          	lw	a5,48(s0)
    25ec:	a5648513          	addi	a0,s1,-1450
    25f0:	4007e793          	ori	a5,a5,1024
    25f4:	02f42823          	sw	a5,48(s0)
    25f8:	a69fd0ef          	jal	ra,60 <delay_loop>
    25fc:	03442783          	lw	a5,52(s0)
    2600:	0017f793          	andi	a5,a5,1
    2604:	fe079ce3          	bnez	a5,25fc <SX1262_Init+0x50>
    2608:	00004737          	lui	a4,0x4
    260c:	c1870493          	addi	s1,a4,-1000 # 3c18 <udat0>
    2610:	004007b7          	lui	a5,0x400
    2614:	06042423          	sw	zero,104(s0)
    2618:	71d78793          	addi	a5,a5,1821 # 40071d <_ebss+0x3fc9d5>
    261c:	06048513          	addi	a0,s1,96
    2620:	00500593          	li	a1,5
    2624:	06f4a023          	sw	a5,96(s1)
    2628:	06048223          	sb	zero,100(s1)
    262c:	decff0ef          	jal	ra,1c18 <SPI_TRANSFER_BUF>
    2630:	00100793          	li	a5,1
    2634:	06f42423          	sw	a5,104(s0)
    2638:	00004737          	lui	a4,0x4
    263c:	0644c683          	lbu	a3,100(s1)
    2640:	000044b7          	lui	s1,0x4
    2644:	c1870413          	addi	s0,a4,-1000 # 3c18 <udat0>
    2648:	c7848713          	addi	a4,s1,-904 # 3c78 <SX1262_spiBuff>
    264c:	01400793          	li	a5,20
    2650:	00e12023          	sw	a4,0(sp)
    2654:	00000513          	li	a0,0
    2658:	1ef69663          	bne	a3,a5,2844 <SX1262_Init+0x298>
    265c:	00003537          	lui	a0,0x3
    2660:	23c50513          	addi	a0,a0,572 # 323c <main+0x864>
    2664:	e3cfe0ef          	jal	ra,ca0 <_printf>
    2668:	e00004b7          	lui	s1,0xe0000
    266c:	0344a703          	lw	a4,52(s1) # e0000034 <_ebss+0xdfffc2ec>
    2670:	00177713          	andi	a4,a4,1
    2674:	fe071ce3          	bnez	a4,266c <SX1262_Init+0xc0>
    2678:	00012503          	lw	a0,0(sp)
    267c:	0604a423          	sw	zero,104(s1)
    2680:	19d00713          	li	a4,413
    2684:	00200593          	li	a1,2
    2688:	06e41023          	sh	a4,96(s0)
    268c:	d8cff0ef          	jal	ra,1c18 <SPI_TRANSFER_BUF>
    2690:	00100713          	li	a4,1
    2694:	00092537          	lui	a0,0x92
    2698:	06e4a423          	sw	a4,104(s1)
    269c:	7b650513          	addi	a0,a0,1974 # 927b6 <_ebss+0x8ea6e>
    26a0:	9c1fd0ef          	jal	ra,60 <delay_loop>
    26a4:	e55ff0ef          	jal	ra,24f8 <SX1262_configSetFrequency.part.0>
    26a8:	e00004b7          	lui	s1,0xe0000
    26ac:	0344a703          	lw	a4,52(s1) # e0000034 <_ebss+0xdfffc2ec>
    26b0:	00177713          	andi	a4,a4,1
    26b4:	fe071ce3          	bnez	a4,26ac <SX1262_Init+0x100>
    26b8:	00012503          	lw	a0,0(sp)
    26bc:	0604a423          	sw	zero,104(s1)
    26c0:	18a00713          	li	a4,394
    26c4:	00200593          	li	a1,2
    26c8:	06e41023          	sh	a4,96(s0)
    26cc:	d4cff0ef          	jal	ra,1c18 <SPI_TRANSFER_BUF>
    26d0:	00100713          	li	a4,1
    26d4:	00092537          	lui	a0,0x92
    26d8:	06e4a423          	sw	a4,104(s1)
    26dc:	7b650513          	addi	a0,a0,1974 # 927b6 <_ebss+0x8ea6e>
    26e0:	981fd0ef          	jal	ra,60 <delay_loop>
    26e4:	e00004b7          	lui	s1,0xe0000
    26e8:	0344a703          	lw	a4,52(s1) # e0000034 <_ebss+0xdfffc2ec>
    26ec:	00177713          	andi	a4,a4,1
    26f0:	fe071ce3          	bnez	a4,26e8 <SX1262_Init+0x13c>
    26f4:	00012503          	lw	a0,0(sp)
    26f8:	0604a423          	sw	zero,104(s1)
    26fc:	09f00713          	li	a4,159
    2700:	00200593          	li	a1,2
    2704:	06e41023          	sh	a4,96(s0)
    2708:	d10ff0ef          	jal	ra,1c18 <SPI_TRANSFER_BUF>
    270c:	00100713          	li	a4,1
    2710:	00092537          	lui	a0,0x92
    2714:	06e4a423          	sw	a4,104(s1)
    2718:	7b650513          	addi	a0,a0,1974 # 927b6 <_ebss+0x8ea6e>
    271c:	945fd0ef          	jal	ra,60 <delay_loop>
    2720:	00100513          	li	a0,1
    2724:	c5dff0ef          	jal	ra,2380 <SX1262_configSetPreset>
    2728:	e00004b7          	lui	s1,0xe0000
    272c:	0344a703          	lw	a4,52(s1) # e0000034 <_ebss+0xdfffc2ec>
    2730:	00177713          	andi	a4,a4,1
    2734:	fe071ce3          	bnez	a4,272c <SX1262_Init+0x180>
    2738:	00012503          	lw	a0,0(sp)
    273c:	00070737          	lui	a4,0x70
    2740:	0604a423          	sw	zero,104(s1)
    2744:	49570713          	addi	a4,a4,1173 # 70495 <_ebss+0x6c74d>
    2748:	06e42023          	sw	a4,96(s0)
    274c:	00500593          	li	a1,5
    2750:	00100713          	li	a4,1
    2754:	06e40223          	sb	a4,100(s0)
    2758:	cc0ff0ef          	jal	ra,1c18 <SPI_TRANSFER_BUF>
    275c:	00100713          	li	a4,1
    2760:	00092537          	lui	a0,0x92
    2764:	06e4a423          	sw	a4,104(s1)
    2768:	7b650513          	addi	a0,a0,1974 # 927b6 <_ebss+0x8ea6e>
    276c:	8f5fd0ef          	jal	ra,60 <delay_loop>
    2770:	e00004b7          	lui	s1,0xe0000
    2774:	0344a703          	lw	a4,52(s1) # e0000034 <_ebss+0xdfffc2ec>
    2778:	00177713          	andi	a4,a4,1
    277c:	fe071ce3          	bnez	a4,2774 <SX1262_Init+0x1c8>
    2780:	00012503          	lw	a0,0(sp)
    2784:	00001737          	lui	a4,0x1
    2788:	0604a423          	sw	zero,104(s1)
    278c:	68e70713          	addi	a4,a4,1678 # 168e <devuelve_pres+0x2ae>
    2790:	06e41023          	sh	a4,96(s0)
    2794:	00300593          	li	a1,3
    2798:	00200713          	li	a4,2
    279c:	06e40123          	sb	a4,98(s0)
    27a0:	c78ff0ef          	jal	ra,1c18 <SPI_TRANSFER_BUF>
    27a4:	00100713          	li	a4,1
    27a8:	00092537          	lui	a0,0x92
    27ac:	06e4a423          	sw	a4,104(s1)
    27b0:	7b650513          	addi	a0,a0,1974 # 927b6 <_ebss+0x8ea6e>
    27b4:	8adfd0ef          	jal	ra,60 <delay_loop>
    27b8:	e00004b7          	lui	s1,0xe0000
    27bc:	0344a703          	lw	a4,52(s1) # e0000034 <_ebss+0xdfffc2ec>
    27c0:	00177713          	andi	a4,a4,1
    27c4:	fe071ce3          	bnez	a4,27bc <SX1262_Init+0x210>
    27c8:	00012503          	lw	a0,0(sp)
    27cc:	0604a423          	sw	zero,104(s1)
    27d0:	0a000713          	li	a4,160
    27d4:	00200593          	li	a1,2
    27d8:	06e41023          	sh	a4,96(s0)
    27dc:	c3cff0ef          	jal	ra,1c18 <SPI_TRANSFER_BUF>
    27e0:	00100713          	li	a4,1
    27e4:	00092537          	lui	a0,0x92
    27e8:	06e4a423          	sw	a4,104(s1)
    27ec:	7b650513          	addi	a0,a0,1974 # 927b6 <_ebss+0x8ea6e>
    27f0:	871fd0ef          	jal	ra,60 <delay_loop>
    27f4:	e00004b7          	lui	s1,0xe0000
    27f8:	0344a703          	lw	a4,52(s1) # e0000034 <_ebss+0xdfffc2ec>
    27fc:	00177713          	andi	a4,a4,1
    2800:	fe071ce3          	bnez	a4,27f8 <SX1262_Init+0x24c>
    2804:	00012503          	lw	a0,0(sp)
    2808:	ff020737          	lui	a4,0xff020
    280c:	0604a423          	sw	zero,104(s1)
    2810:	00870713          	addi	a4,a4,8 # ff020008 <_ebss+0xff01c2c0>
    2814:	06e42023          	sw	a4,96(s0)
    2818:	00900593          	li	a1,9
    281c:	0ff00713          	li	a4,255
    2820:	06e42223          	sw	a4,100(s0)
    2824:	06040423          	sb	zero,104(s0)
    2828:	bf0ff0ef          	jal	ra,1c18 <SPI_TRANSFER_BUF>
    282c:	00100713          	li	a4,1
    2830:	00092537          	lui	a0,0x92
    2834:	7b650513          	addi	a0,a0,1974 # 927b6 <_ebss+0x8ea6e>
    2838:	06e4a423          	sw	a4,104(s1)
    283c:	825fd0ef          	jal	ra,60 <delay_loop>
    2840:	00100513          	li	a0,1
    2844:	00c12083          	lw	ra,12(sp)
    2848:	00812403          	lw	s0,8(sp)
    284c:	00412483          	lw	s1,4(sp)
    2850:	01010113          	addi	sp,sp,16
    2854:	00008067          	ret

00002858 <SX1262_readPacketStatus>:
    2858:	ff410113          	addi	sp,sp,-12
    285c:	00912023          	sw	s1,0(sp)
    2860:	00112423          	sw	ra,8(sp)
    2864:	00812223          	sw	s0,4(sp)
    2868:	e00004b7          	lui	s1,0xe0000
    286c:	0344a783          	lw	a5,52(s1) # e0000034 <_ebss+0xdfffc2ec>
    2870:	0017f793          	andi	a5,a5,1
    2874:	fe079ce3          	bnez	a5,286c <SX1262_readPacketStatus+0x14>
    2878:	00004437          	lui	s0,0x4
    287c:	c1840413          	addi	s0,s0,-1000 # 3c18 <udat0>
    2880:	0604a423          	sw	zero,104(s1)
    2884:	f1400793          	li	a5,-236
    2888:	06f42023          	sw	a5,96(s0)
    288c:	06040513          	addi	a0,s0,96
    2890:	fff00793          	li	a5,-1
    2894:	00500593          	li	a1,5
    2898:	06f40223          	sb	a5,100(s0)
    289c:	b7cff0ef          	jal	ra,1c18 <SPI_TRANSFER_BUF>
    28a0:	00100793          	li	a5,1
    28a4:	06f4a423          	sw	a5,104(s1)
    28a8:	06244783          	lbu	a5,98(s0)
    28ac:	00004737          	lui	a4,0x4
    28b0:	00812083          	lw	ra,8(sp)
    28b4:	4017d793          	srai	a5,a5,0x1
    28b8:	40f007b3          	neg	a5,a5
    28bc:	d2f72a23          	sw	a5,-716(a4) # 3d34 <SX1262_rssi>
    28c0:	06340703          	lb	a4,99(s0)
    28c4:	00012483          	lw	s1,0(sp)
    28c8:	41f75793          	srai	a5,a4,0x1f
    28cc:	0037f793          	andi	a5,a5,3
    28d0:	00e787b3          	add	a5,a5,a4
    28d4:	4027d793          	srai	a5,a5,0x2
    28d8:	00004737          	lui	a4,0x4
    28dc:	d2f72823          	sw	a5,-720(a4) # 3d30 <SX1262_snr>
    28e0:	06444783          	lbu	a5,100(s0)
    28e4:	00412403          	lw	s0,4(sp)
    28e8:	00004737          	lui	a4,0x4
    28ec:	4017d793          	srai	a5,a5,0x1
    28f0:	40f007b3          	neg	a5,a5
    28f4:	d2f72623          	sw	a5,-724(a4) # 3d2c <SX1262_signalRssi>
    28f8:	00c10113          	addi	sp,sp,12
    28fc:	00008067          	ret

00002900 <__mulsi3>:
    2900:	00050613          	mv	a2,a0
    2904:	00000513          	li	a0,0
    2908:	0015f693          	andi	a3,a1,1
    290c:	00068463          	beqz	a3,2914 <__mulsi3+0x14>
    2910:	00c50533          	add	a0,a0,a2
    2914:	0015d593          	srli	a1,a1,0x1
    2918:	00161613          	slli	a2,a2,0x1
    291c:	fe0596e3          	bnez	a1,2908 <__mulsi3+0x8>
    2920:	00008067          	ret

00002924 <__divsi3>:
    2924:	06054063          	bltz	a0,2984 <__umodsi3+0x10>
    2928:	0605c663          	bltz	a1,2994 <__umodsi3+0x20>

0000292c <__hidden___udivsi3>:
    292c:	00058613          	mv	a2,a1
    2930:	00050593          	mv	a1,a0
    2934:	fff00513          	li	a0,-1
    2938:	02060c63          	beqz	a2,2970 <__hidden___udivsi3+0x44>
    293c:	00100693          	li	a3,1
    2940:	00b67a63          	bgeu	a2,a1,2954 <__hidden___udivsi3+0x28>
    2944:	00c05863          	blez	a2,2954 <__hidden___udivsi3+0x28>
    2948:	00161613          	slli	a2,a2,0x1
    294c:	00169693          	slli	a3,a3,0x1
    2950:	feb66ae3          	bltu	a2,a1,2944 <__hidden___udivsi3+0x18>
    2954:	00000513          	li	a0,0
    2958:	00c5e663          	bltu	a1,a2,2964 <__hidden___udivsi3+0x38>
    295c:	40c585b3          	sub	a1,a1,a2
    2960:	00d56533          	or	a0,a0,a3
    2964:	0016d693          	srli	a3,a3,0x1
    2968:	00165613          	srli	a2,a2,0x1
    296c:	fe0696e3          	bnez	a3,2958 <__hidden___udivsi3+0x2c>
    2970:	00008067          	ret

00002974 <__umodsi3>:
    2974:	00008293          	mv	t0,ra
    2978:	fb5ff0ef          	jal	ra,292c <__hidden___udivsi3>
    297c:	00058513          	mv	a0,a1
    2980:	00028067          	jr	t0
    2984:	40a00533          	neg	a0,a0
    2988:	00b04863          	bgtz	a1,2998 <__umodsi3+0x24>
    298c:	40b005b3          	neg	a1,a1
    2990:	f9dff06f          	j	292c <__hidden___udivsi3>
    2994:	40b005b3          	neg	a1,a1
    2998:	00008293          	mv	t0,ra
    299c:	f91ff0ef          	jal	ra,292c <__hidden___udivsi3>
    29a0:	40a00533          	neg	a0,a0
    29a4:	00028067          	jr	t0

000029a8 <__modsi3>:
    29a8:	00008293          	mv	t0,ra
    29ac:	0005ca63          	bltz	a1,29c0 <__modsi3+0x18>
    29b0:	00054c63          	bltz	a0,29c8 <__modsi3+0x20>
    29b4:	f79ff0ef          	jal	ra,292c <__hidden___udivsi3>
    29b8:	00058513          	mv	a0,a1
    29bc:	00028067          	jr	t0
    29c0:	40b005b3          	neg	a1,a1
    29c4:	fe0558e3          	bgez	a0,29b4 <__modsi3+0xc>
    29c8:	40a00533          	neg	a0,a0
    29cc:	f61ff0ef          	jal	ra,292c <__hidden___udivsi3>
    29d0:	40b00533          	neg	a0,a1
    29d4:	00028067          	jr	t0

000029d8 <main>:
    29d8:	f0c10113          	addi	sp,sp,-244
    29dc:	00001737          	lui	a4,0x1
    29e0:	0e112823          	sw	ra,240(sp)
    29e4:	0e812623          	sw	s0,236(sp)
    29e8:	0e912423          	sw	s1,232(sp)
    29ec:	e00007b7          	lui	a5,0xe0000
    29f0:	80870713          	addi	a4,a4,-2040 # 808 <printi+0x8>
    29f4:	06e7aa23          	sw	a4,116(a5) # e0000074 <_ebss+0xdfffc32c>
    29f8:	06e7a223          	sw	a4,100(a5)
    29fc:	00300713          	li	a4,3
    2a00:	06e7ac23          	sw	a4,120(a5)
    2a04:	00100713          	li	a4,1
    2a08:	06e7a423          	sw	a4,104(a5)
    2a0c:	09b00713          	li	a4,155
    2a10:	08e7a223          	sw	a4,132(a5)
    2a14:	75200693          	li	a3,1874
    2a18:	08d7aa23          	sw	a3,148(a5)
    2a1c:	0ae7a223          	sw	a4,164(a5)
    2a20:	4e000713          	li	a4,1248
    2a24:	02e7a823          	sw	a4,48(a5)
    2a28:	0807c703          	lbu	a4,128(a5)
    2a2c:	0907c703          	lbu	a4,144(a5)
    2a30:	0a07c703          	lbu	a4,160(a5)
    2a34:	00001737          	lui	a4,0x1
    2a38:	12870713          	addi	a4,a4,296 # 1128 <irq0_handler>
    2a3c:	00e7a023          	sw	a4,0(a5)
    2a40:	00002737          	lui	a4,0x2
    2a44:	a7470713          	addi	a4,a4,-1420 # 1a74 <irq1_handler>
    2a48:	00e7a223          	sw	a4,4(a5)
    2a4c:	0b000713          	li	a4,176
    2a50:	00e7a423          	sw	a4,8(a5)
    2a54:	11400713          	li	a4,276
    2a58:	00e7a623          	sw	a4,12(a5)
    2a5c:	16400713          	li	a4,356
    2a60:	00e7a823          	sw	a4,16(a5)
    2a64:	1c800713          	li	a4,456
    2a68:	00e7aa23          	sw	a4,20(a5)
    2a6c:	21800713          	li	a4,536
    2a70:	00e7ac23          	sw	a4,24(a5)
    2a74:	27c00713          	li	a4,636
    2a78:	00e7ae23          	sw	a4,28(a5)
    2a7c:	00400713          	li	a4,4
    2a80:	02e7a023          	sw	a4,32(a5)
    2a84:	fff00713          	li	a4,-1
    2a88:	04e7a023          	sw	a4,64(a5)
    2a8c:	00000073          	ecall
    2a90:	00100073          	ebreak
    2a94:	00003537          	lui	a0,0x3
    2a98:	24c50513          	addi	a0,a0,588 # 324c <main+0x874>
    2a9c:	8e0fe0ef          	jal	ra,b7c <_puts>
    2aa0:	00003537          	lui	a0,0x3
    2aa4:	55c50513          	addi	a0,a0,1372 # 355c <main+0xb84>
    2aa8:	8d4fe0ef          	jal	ra,b7c <_puts>
    2aac:	000037b7          	lui	a5,0x3
    2ab0:	58478513          	addi	a0,a5,1412 # 3584 <main+0xbac>
    2ab4:	8c8fe0ef          	jal	ra,b7c <_puts>
    2ab8:	8f8fe0ef          	jal	ra,bb0 <_getchUART0>
    2abc:	fdf50793          	addi	a5,a0,-33
    2ac0:	0ff7f793          	zext.b	a5,a5
    2ac4:	05d00713          	li	a4,93
    2ac8:	00050413          	mv	s0,a0
    2acc:	000034b7          	lui	s1,0x3
    2ad0:	00f77663          	bgeu	a4,a5,2adc <main+0x104>
    2ad4:	55848513          	addi	a0,s1,1368 # 3558 <main+0xb80>
    2ad8:	fd1ff06f          	j	2aa8 <main+0xd0>
    2adc:	bc9fd0ef          	jal	ra,6a4 <_putch>
    2ae0:	55848513          	addi	a0,s1,1368
    2ae4:	898fe0ef          	jal	ra,b7c <_puts>
    2ae8:	03200793          	li	a5,50
    2aec:	02f40663          	beq	s0,a5,2b18 <main+0x140>
    2af0:	f9f40413          	addi	s0,s0,-97
    2af4:	0ff47413          	zext.b	s0,s0
    2af8:	01300793          	li	a5,19
    2afc:	fa87e8e3          	bltu	a5,s0,2aac <main+0xd4>
    2b00:	000037b7          	lui	a5,0x3
    2b04:	0c478793          	addi	a5,a5,196 # 30c4 <main+0x6ec>
    2b08:	00241413          	slli	s0,s0,0x2
    2b0c:	00f40433          	add	s0,s0,a5
    2b10:	00042783          	lw	a5,0(s0)
    2b14:	00078067          	jr	a5
    2b18:	e0000737          	lui	a4,0xe0000
    2b1c:	02072783          	lw	a5,32(a4) # e0000020 <_ebss+0xdfffc2d8>
    2b20:	00092537          	lui	a0,0x92
    2b24:	7b650513          	addi	a0,a0,1974 # 927b6 <_ebss+0x8ea6e>
    2b28:	0037c793          	xori	a5,a5,3
    2b2c:	02f72023          	sw	a5,32(a4)
    2b30:	d30fd0ef          	jal	ra,60 <delay_loop>
    2b34:	f79ff06f          	j	2aac <main+0xd4>
    2b38:	a75ff0ef          	jal	ra,25ac <SX1262_Init>
    2b3c:	10050a63          	beqz	a0,2c50 <main+0x278>
    2b40:	00004537          	lui	a0,0x4
    2b44:	8b450513          	addi	a0,a0,-1868 # 38b4 <main+0xedc>
    2b48:	958fe0ef          	jal	ra,ca0 <_printf>
    2b4c:	9adff0ef          	jal	ra,24f8 <SX1262_configSetFrequency.part.0>
    2b50:	000047b7          	lui	a5,0x4
    2b54:	00400713          	li	a4,4
    2b58:	d2e783a3          	sb	a4,-729(a5) # 3d27 <SX1262_bandwidth>
    2b5c:	efcff0ef          	jal	ra,2258 <SX1262_updateModulationParameters>
    2b60:	00700513          	li	a0,7
    2b64:	94dff0ef          	jal	ra,24b0 <SX1262_configSetSpreadingFactor>
    2b68:	00004537          	lui	a0,0x4
    2b6c:	00700593          	li	a1,7
    2b70:	8cc50513          	addi	a0,a0,-1844 # 38cc <main+0xef4>
    2b74:	9d8ff0ef          	jal	ra,1d4c <SX1262_transmit>
    2b78:	f35ff06f          	j	2aac <main+0xd4>
    2b7c:	a31ff0ef          	jal	ra,25ac <SX1262_Init>
    2b80:	0c050863          	beqz	a0,2c50 <main+0x278>
    2b84:	00004537          	lui	a0,0x4
    2b88:	8f050513          	addi	a0,a0,-1808 # 38f0 <main+0xf18>
    2b8c:	914fe0ef          	jal	ra,ca0 <_printf>
    2b90:	969ff0ef          	jal	ra,24f8 <SX1262_configSetFrequency.part.0>
    2b94:	000047b7          	lui	a5,0x4
    2b98:	00400713          	li	a4,4
    2b9c:	d2e783a3          	sb	a4,-729(a5) # 3d27 <SX1262_bandwidth>
    2ba0:	eb8ff0ef          	jal	ra,2258 <SX1262_updateModulationParameters>
    2ba4:	00700513          	li	a0,7
    2ba8:	909ff0ef          	jal	ra,24b0 <SX1262_configSetSpreadingFactor>
    2bac:	d1cfe0ef          	jal	ra,10c8 <hascharUART0>
    2bb0:	00050663          	beqz	a0,2bbc <main+0x1e4>
    2bb4:	ffdfd0ef          	jal	ra,bb0 <_getchUART0>
    2bb8:	ef5ff06f          	j	2aac <main+0xd4>
    2bbc:	000047b7          	lui	a5,0x4
    2bc0:	c1878513          	addi	a0,a5,-1000 # 3c18 <udat0>
    2bc4:	08000593          	li	a1,128
    2bc8:	08050513          	addi	a0,a0,128
    2bcc:	c30ff0ef          	jal	ra,1ffc <SX1262_lora_receive_async>
    2bd0:	00004437          	lui	s0,0x4
    2bd4:	00050593          	mv	a1,a0
    2bd8:	c9840413          	addi	s0,s0,-872 # 3c98 <lora_rx_buffer>
    2bdc:	04a05463          	blez	a0,2c24 <main+0x24c>
    2be0:	00a12823          	sw	a0,16(sp)
    2be4:	00004537          	lui	a0,0x4
    2be8:	91850513          	addi	a0,a0,-1768 # 3918 <main+0xf40>
    2bec:	8b4fe0ef          	jal	ra,ca0 <_printf>
    2bf0:	01012583          	lw	a1,16(sp)
    2bf4:	00000793          	li	a5,0
    2bf8:	00f40733          	add	a4,s0,a5
    2bfc:	00074503          	lbu	a0,0(a4)
    2c00:	00b12a23          	sw	a1,20(sp)
    2c04:	00f12823          	sw	a5,16(sp)
    2c08:	a9dfd0ef          	jal	ra,6a4 <_putch>
    2c0c:	01012783          	lw	a5,16(sp)
    2c10:	01412583          	lw	a1,20(sp)
    2c14:	00178793          	addi	a5,a5,1
    2c18:	fef590e3          	bne	a1,a5,2bf8 <main+0x220>
    2c1c:	55848513          	addi	a0,s1,1368
    2c20:	f5dfd0ef          	jal	ra,b7c <_puts>
    2c24:	00125537          	lui	a0,0x125
    2c28:	f7650513          	addi	a0,a0,-138 # 124f76 <_ebss+0x12122e>
    2c2c:	c34fd0ef          	jal	ra,60 <delay_loop>
    2c30:	f7dff06f          	j	2bac <main+0x1d4>
    2c34:	00004537          	lui	a0,0x4
    2c38:	93850513          	addi	a0,a0,-1736 # 3938 <main+0xf60>
    2c3c:	04012023          	sw	zero,64(sp)
    2c40:	04012223          	sw	zero,68(sp)
    2c44:	f39fd0ef          	jal	ra,b7c <_puts>
    2c48:	965ff0ef          	jal	ra,25ac <SX1262_Init>
    2c4c:	00051a63          	bnez	a0,2c60 <main+0x288>
    2c50:	00004537          	lui	a0,0x4
    2c54:	8d450513          	addi	a0,a0,-1836 # 38d4 <main+0xefc>
    2c58:	848fe0ef          	jal	ra,ca0 <_printf>
    2c5c:	e51ff06f          	j	2aac <main+0xd4>
    2c60:	899ff0ef          	jal	ra,24f8 <SX1262_configSetFrequency.part.0>
    2c64:	000047b7          	lui	a5,0x4
    2c68:	00400713          	li	a4,4
    2c6c:	d2e783a3          	sb	a4,-729(a5) # 3d27 <SX1262_bandwidth>
    2c70:	de8ff0ef          	jal	ra,2258 <SX1262_updateModulationParameters>
    2c74:	00700513          	li	a0,7
    2c78:	839ff0ef          	jal	ra,24b0 <SX1262_configSetSpreadingFactor>
    2c7c:	00000493          	li	s1,0
    2c80:	c48fe0ef          	jal	ra,10c8 <hascharUART0>
    2c84:	f20518e3          	bnez	a0,2bb4 <main+0x1dc>
    2c88:	d80fe0ef          	jal	ra,1208 <inicia_BME>
    2c8c:	e38fe0ef          	jal	ra,12c4 <devuelve_temp>
    2c90:	00050413          	mv	s0,a0
    2c94:	f4cfe0ef          	jal	ra,13e0 <devuelve_pres>
    2c98:	00a12a23          	sw	a0,20(sp)
    2c9c:	00040513          	mv	a0,s0
    2ca0:	a09fe0ef          	jal	ra,16a8 <devuelve_hum>
    2ca4:	00a12823          	sw	a0,16(sp)
    2ca8:	04410593          	addi	a1,sp,68
    2cac:	04010513          	addi	a0,sp,64
    2cb0:	93cfe0ef          	jal	ra,dec <GPS_lee_latlon_micro>
    2cb4:	00051663          	bnez	a0,2cc0 <main+0x2e8>
    2cb8:	04012023          	sw	zero,64(sp)
    2cbc:	04012223          	sw	zero,68(sp)
    2cc0:	04010423          	sb	zero,72(sp)
    2cc4:	02000613          	li	a2,32
    2cc8:	00045663          	bgez	s0,2cd4 <main+0x2fc>
    2ccc:	40800433          	neg	s0,s0
    2cd0:	02d00613          	li	a2,45
    2cd4:	01012503          	lw	a0,16(sp)
    2cd8:	3e800593          	li	a1,1000
    2cdc:	02c12223          	sw	a2,36(sp)
    2ce0:	c45ff0ef          	jal	ra,2924 <__divsi3>
    2ce4:	02a12023          	sw	a0,32(sp)
    2ce8:	06400593          	li	a1,100
    2cec:	00040513          	mv	a0,s0
    2cf0:	cb9ff0ef          	jal	ra,29a8 <__modsi3>
    2cf4:	00a12e23          	sw	a0,28(sp)
    2cf8:	06400593          	li	a1,100
    2cfc:	00040513          	mv	a0,s0
    2d00:	c25ff0ef          	jal	ra,2924 <__divsi3>
    2d04:	04412583          	lw	a1,68(sp)
    2d08:	01412783          	lw	a5,20(sp)
    2d0c:	00a12c23          	sw	a0,24(sp)
    2d10:	00b12623          	sw	a1,12(sp)
    2d14:	04012583          	lw	a1,64(sp)
    2d18:	01012503          	lw	a0,16(sp)
    2d1c:	00f12223          	sw	a5,4(sp)
    2d20:	00b12423          	sw	a1,8(sp)
    2d24:	3e800593          	li	a1,1000
    2d28:	c81ff0ef          	jal	ra,29a8 <__modsi3>
    2d2c:	02012783          	lw	a5,32(sp)
    2d30:	01c12703          	lw	a4,28(sp)
    2d34:	01812683          	lw	a3,24(sp)
    2d38:	02412603          	lw	a2,36(sp)
    2d3c:	000045b7          	lui	a1,0x4
    2d40:	00a12023          	sw	a0,0(sp)
    2d44:	97c58593          	addi	a1,a1,-1668 # 397c <main+0xfa4>
    2d48:	04810513          	addi	a0,sp,72
    2d4c:	f91fd0ef          	jal	ra,cdc <_sprintf>
    2d50:	09f00793          	li	a5,159
    2d54:	00050593          	mv	a1,a0
    2d58:	04a7de63          	bge	a5,a0,2db4 <main+0x3dc>
    2d5c:	09f00593          	li	a1,159
    2d60:	03010713          	addi	a4,sp,48
    2d64:	0b858793          	addi	a5,a1,184
    2d68:	00e787b3          	add	a5,a5,a4
    2d6c:	04810513          	addi	a0,sp,72
    2d70:	f6078023          	sb	zero,-160(a5)
    2d74:	fd9fe0ef          	jal	ra,1d4c <SX1262_transmit>
    2d78:	ae1ff0ef          	jal	ra,2858 <SX1262_readPacketStatus>
    2d7c:	000047b7          	lui	a5,0x4
    2d80:	d307a603          	lw	a2,-720(a5) # 3d30 <SX1262_snr>
    2d84:	000047b7          	lui	a5,0x4
    2d88:	d347a583          	lw	a1,-716(a5) # 3d34 <SX1262_rssi>
    2d8c:	00004537          	lui	a0,0x4
    2d90:	00048693          	mv	a3,s1
    2d94:	04810713          	addi	a4,sp,72
    2d98:	9bc50513          	addi	a0,a0,-1604 # 39bc <main+0xfe4>
    2d9c:	f05fd0ef          	jal	ra,ca0 <_printf>
    2da0:	005b9537          	lui	a0,0x5b9
    2da4:	d7650513          	addi	a0,a0,-650 # 5b8d76 <_ebss+0x5b502e>
    2da8:	00148493          	addi	s1,s1,1
    2dac:	ab4fd0ef          	jal	ra,60 <delay_loop>
    2db0:	ed1ff06f          	j	2c80 <main+0x2a8>
    2db4:	fa0556e3          	bgez	a0,2d60 <main+0x388>
    2db8:	00000593          	li	a1,0
    2dbc:	fa5ff06f          	j	2d60 <main+0x388>
    2dc0:	c48fe0ef          	jal	ra,1208 <inicia_BME>
    2dc4:	d00fe0ef          	jal	ra,12c4 <devuelve_temp>
    2dc8:	00a12823          	sw	a0,16(sp)
    2dcc:	e14fe0ef          	jal	ra,13e0 <devuelve_pres>
    2dd0:	00a12c23          	sw	a0,24(sp)
    2dd4:	01012503          	lw	a0,16(sp)
    2dd8:	00004437          	lui	s0,0x4
    2ddc:	8cdfe0ef          	jal	ra,16a8 <devuelve_hum>
    2de0:	00a12a23          	sw	a0,20(sp)
    2de4:	00004537          	lui	a0,0x4
    2de8:	9dc50513          	addi	a0,a0,-1572 # 39dc <main+0x1004>
    2dec:	eb5fd0ef          	jal	ra,ca0 <_printf>
    2df0:	a0840513          	addi	a0,s0,-1528 # 3a08 <main+0x1030>
    2df4:	eadfd0ef          	jal	ra,ca0 <_printf>
    2df8:	55848513          	addi	a0,s1,1368
    2dfc:	ea5fd0ef          	jal	ra,ca0 <_printf>
    2e00:	00004537          	lui	a0,0x4
    2e04:	a3850513          	addi	a0,a0,-1480 # 3a38 <main+0x1060>
    2e08:	e99fd0ef          	jal	ra,ca0 <_printf>
    2e0c:	01012503          	lw	a0,16(sp)
    2e10:	06400593          	li	a1,100
    2e14:	b95ff0ef          	jal	ra,29a8 <__modsi3>
    2e18:	00a12e23          	sw	a0,28(sp)
    2e1c:	01012503          	lw	a0,16(sp)
    2e20:	06400593          	li	a1,100
    2e24:	b01ff0ef          	jal	ra,2924 <__divsi3>
    2e28:	01c12603          	lw	a2,28(sp)
    2e2c:	00050593          	mv	a1,a0
    2e30:	00004537          	lui	a0,0x4
    2e34:	0a700693          	li	a3,167
    2e38:	a5850513          	addi	a0,a0,-1448 # 3a58 <main+0x1080>
    2e3c:	e65fd0ef          	jal	ra,ca0 <_printf>
    2e40:	00004537          	lui	a0,0x4
    2e44:	a6450513          	addi	a0,a0,-1436 # 3a64 <main+0x108c>
    2e48:	e59fd0ef          	jal	ra,ca0 <_printf>
    2e4c:	01812583          	lw	a1,24(sp)
    2e50:	00004537          	lui	a0,0x4
    2e54:	a8450513          	addi	a0,a0,-1404 # 3a84 <main+0x10ac>
    2e58:	e49fd0ef          	jal	ra,ca0 <_printf>
    2e5c:	00004537          	lui	a0,0x4
    2e60:	a9050513          	addi	a0,a0,-1392 # 3a90 <main+0x10b8>
    2e64:	e3dfd0ef          	jal	ra,ca0 <_printf>
    2e68:	01412503          	lw	a0,20(sp)
    2e6c:	3e800593          	li	a1,1000
    2e70:	b39ff0ef          	jal	ra,29a8 <__modsi3>
    2e74:	00a12823          	sw	a0,16(sp)
    2e78:	01412503          	lw	a0,20(sp)
    2e7c:	3e800593          	li	a1,1000
    2e80:	aa5ff0ef          	jal	ra,2924 <__divsi3>
    2e84:	01012603          	lw	a2,16(sp)
    2e88:	00050593          	mv	a1,a0
    2e8c:	00004537          	lui	a0,0x4
    2e90:	02500693          	li	a3,37
    2e94:	ab050513          	addi	a0,a0,-1360 # 3ab0 <main+0x10d8>
    2e98:	e09fd0ef          	jal	ra,ca0 <_printf>
    2e9c:	00004537          	lui	a0,0x4
    2ea0:	abc50513          	addi	a0,a0,-1348 # 3abc <main+0x10e4>
    2ea4:	dfdfd0ef          	jal	ra,ca0 <_printf>
    2ea8:	a0840513          	addi	a0,s0,-1528
    2eac:	dadff06f          	j	2c58 <main+0x280>
    2eb0:	00100513          	li	a0,1
    2eb4:	cbdfe0ef          	jal	ra,1b70 <lee_GP2Y>
    2eb8:	00050593          	mv	a1,a0
    2ebc:	00004537          	lui	a0,0x4
    2ec0:	ac050513          	addi	a0,a0,-1344 # 3ac0 <main+0x10e8>
    2ec4:	dddfd0ef          	jal	ra,ca0 <_printf>
    2ec8:	be5ff06f          	j	2aac <main+0xd4>
    2ecc:	00000513          	li	a0,0
    2ed0:	a25fe0ef          	jal	ra,18f4 <lee_MCP>
    2ed4:	00a12c23          	sw	a0,24(sp)
    2ed8:	00100513          	li	a0,1
    2edc:	a19fe0ef          	jal	ra,18f4 <lee_MCP>
    2ee0:	00a12a23          	sw	a0,20(sp)
    2ee4:	00200513          	li	a0,2
    2ee8:	a0dfe0ef          	jal	ra,18f4 <lee_MCP>
    2eec:	00a12823          	sw	a0,16(sp)
    2ef0:	00300513          	li	a0,3
    2ef4:	a01fe0ef          	jal	ra,18f4 <lee_MCP>
    2ef8:	01012683          	lw	a3,16(sp)
    2efc:	01412603          	lw	a2,20(sp)
    2f00:	01812583          	lw	a1,24(sp)
    2f04:	00050713          	mv	a4,a0
    2f08:	00004537          	lui	a0,0x4
    2f0c:	af450513          	addi	a0,a0,-1292 # 3af4 <main+0x111c>
    2f10:	d91fd0ef          	jal	ra,ca0 <_printf>
    2f14:	b99ff06f          	j	2aac <main+0xd4>
    2f18:	af0fe0ef          	jal	ra,1208 <inicia_BME>
    2f1c:	ba8fe0ef          	jal	ra,12c4 <devuelve_temp>
    2f20:	00050413          	mv	s0,a0
    2f24:	cbcfe0ef          	jal	ra,13e0 <devuelve_pres>
    2f28:	00a12a23          	sw	a0,20(sp)
    2f2c:	00040513          	mv	a0,s0
    2f30:	f78fe0ef          	jal	ra,16a8 <devuelve_hum>
    2f34:	00a12823          	sw	a0,16(sp)
    2f38:	00000513          	li	a0,0
    2f3c:	9b9fe0ef          	jal	ra,18f4 <lee_MCP>
    2f40:	00a12c23          	sw	a0,24(sp)
    2f44:	00100513          	li	a0,1
    2f48:	9adfe0ef          	jal	ra,18f4 <lee_MCP>
    2f4c:	00a12e23          	sw	a0,28(sp)
    2f50:	00200513          	li	a0,2
    2f54:	9a1fe0ef          	jal	ra,18f4 <lee_MCP>
    2f58:	02a12023          	sw	a0,32(sp)
    2f5c:	00300513          	li	a0,3
    2f60:	995fe0ef          	jal	ra,18f4 <lee_MCP>
    2f64:	02a12223          	sw	a0,36(sp)
    2f68:	00000513          	li	a0,0
    2f6c:	9a1fe0ef          	jal	ra,190c <lee_MQ9_CO>
    2f70:	02a12423          	sw	a0,40(sp)
    2f74:	00000513          	li	a0,0
    2f78:	a61fe0ef          	jal	ra,19d8 <lee_MQ9_CH4>
    2f7c:	02a12623          	sw	a0,44(sp)
    2f80:	00100513          	li	a0,1
    2f84:	bedfe0ef          	jal	ra,1b70 <lee_GP2Y>
    2f88:	02a12823          	sw	a0,48(sp)
    2f8c:	02000493          	li	s1,32
    2f90:	00045663          	bgez	s0,2f9c <main+0x5c4>
    2f94:	40800433          	neg	s0,s0
    2f98:	02d00493          	li	s1,45
    2f9c:	00004537          	lui	a0,0x4
    2fa0:	b2850513          	addi	a0,a0,-1240 # 3b28 <main+0x1150>
    2fa4:	cfdfd0ef          	jal	ra,ca0 <_printf>
    2fa8:	01012503          	lw	a0,16(sp)
    2fac:	3e800593          	li	a1,1000
    2fb0:	975ff0ef          	jal	ra,2924 <__divsi3>
    2fb4:	02a12e23          	sw	a0,60(sp)
    2fb8:	06400593          	li	a1,100
    2fbc:	00040513          	mv	a0,s0
    2fc0:	9e9ff0ef          	jal	ra,29a8 <__modsi3>
    2fc4:	02a12c23          	sw	a0,56(sp)
    2fc8:	06400593          	li	a1,100
    2fcc:	00040513          	mv	a0,s0
    2fd0:	955ff0ef          	jal	ra,2924 <__divsi3>
    2fd4:	02a12a23          	sw	a0,52(sp)
    2fd8:	01012503          	lw	a0,16(sp)
    2fdc:	3e800593          	li	a1,1000
    2fe0:	9c9ff0ef          	jal	ra,29a8 <__modsi3>
    2fe4:	03c12783          	lw	a5,60(sp)
    2fe8:	01412703          	lw	a4,20(sp)
    2fec:	03812683          	lw	a3,56(sp)
    2ff0:	03412603          	lw	a2,52(sp)
    2ff4:	00a12023          	sw	a0,0(sp)
    2ff8:	00004537          	lui	a0,0x4
    2ffc:	00048593          	mv	a1,s1
    3000:	b4850513          	addi	a0,a0,-1208 # 3b48 <main+0x1170>
    3004:	c9dfd0ef          	jal	ra,ca0 <_printf>
    3008:	02412703          	lw	a4,36(sp)
    300c:	02012683          	lw	a3,32(sp)
    3010:	01c12603          	lw	a2,28(sp)
    3014:	01812583          	lw	a1,24(sp)
    3018:	00004537          	lui	a0,0x4
    301c:	b7850513          	addi	a0,a0,-1160 # 3b78 <main+0x11a0>
    3020:	c81fd0ef          	jal	ra,ca0 <_printf>
    3024:	02c12603          	lw	a2,44(sp)
    3028:	02812583          	lw	a1,40(sp)
    302c:	00004537          	lui	a0,0x4
    3030:	b9c50513          	addi	a0,a0,-1124 # 3b9c <main+0x11c4>
    3034:	c6dfd0ef          	jal	ra,ca0 <_printf>
    3038:	03012583          	lw	a1,48(sp)
    303c:	00004537          	lui	a0,0x4
    3040:	bb850513          	addi	a0,a0,-1096 # 3bb8 <main+0x11e0>
    3044:	c5dfd0ef          	jal	ra,ca0 <_printf>
    3048:	00004537          	lui	a0,0x4
    304c:	bcc50513          	addi	a0,a0,-1076 # 3bcc <main+0x11f4>
    3050:	c51fd0ef          	jal	ra,ca0 <_printf>
    3054:	e9dfd0ef          	jal	ra,ef0 <lee_GPS>
    3058:	a55ff06f          	j	2aac <main+0xd4>
    305c:	00003537          	lui	a0,0x3
    3060:	24c50513          	addi	a0,a0,588 # 324c <main+0x874>
    3064:	a45ff06f          	j	2aa8 <main+0xd0>
    3068:	00000513          	li	a0,0
    306c:	8a1fe0ef          	jal	ra,190c <lee_MQ9_CO>
    3070:	00a12823          	sw	a0,16(sp)
    3074:	00000513          	li	a0,0
    3078:	961fe0ef          	jal	ra,19d8 <lee_MQ9_CH4>
    307c:	01012583          	lw	a1,16(sp)
    3080:	00050613          	mv	a2,a0
    3084:	00004537          	lui	a0,0x4
    3088:	bec50513          	addi	a0,a0,-1044 # 3bec <main+0x1214>
    308c:	c15fd0ef          	jal	ra,ca0 <_printf>
    3090:	a1dff06f          	j	2aac <main+0xd4>
    3094:	0f012083          	lw	ra,240(sp)
    3098:	0ec12403          	lw	s0,236(sp)
    309c:	0e812483          	lw	s1,232(sp)
    30a0:	0f410113          	addi	sp,sp,244
    30a4:	00008067          	ret
    30a8:	235c                	.2byte	0x235c
    30aa:	0000                	.2byte	0x0
    30ac:	2350                	.2byte	0x2350
    30ae:	0000                	.2byte	0x0
    30b0:	2344                	.2byte	0x2344
    30b2:	0000                	.2byte	0x0
    30b4:	2338                	.2byte	0x2338
    30b6:	0000                	.2byte	0x0
    30b8:	232c                	.2byte	0x232c
    30ba:	0000                	.2byte	0x0
    30bc:	2308                	.2byte	0x2308
    30be:	0000                	.2byte	0x0
    30c0:	2374                	.2byte	0x2374
    30c2:	0000                	.2byte	0x0
    30c4:	2ecc                	.2byte	0x2ecc
    30c6:	0000                	.2byte	0x0
    30c8:	2aac                	.2byte	0x2aac
    30ca:	0000                	.2byte	0x0
    30cc:	2c34                	.2byte	0x2c34
    30ce:	0000                	.2byte	0x0
    30d0:	2f18                	.2byte	0x2f18
    30d2:	0000                	.2byte	0x0
    30d4:	305c                	.2byte	0x305c
    30d6:	0000                	.2byte	0x0
    30d8:	3068                	.2byte	0x3068
    30da:	0000                	.2byte	0x0
    30dc:	3054                	.2byte	0x3054
    30de:	0000                	.2byte	0x0
    30e0:	2aac                	.2byte	0x2aac
    30e2:	0000                	.2byte	0x0
    30e4:	2aac                	.2byte	0x2aac
    30e6:	0000                	.2byte	0x0
    30e8:	2aac                	.2byte	0x2aac
    30ea:	0000                	.2byte	0x0
    30ec:	2aac                	.2byte	0x2aac
    30ee:	0000                	.2byte	0x0
    30f0:	2aac                	.2byte	0x2aac
    30f2:	0000                	.2byte	0x0
    30f4:	2aac                	.2byte	0x2aac
    30f6:	0000                	.2byte	0x0
    30f8:	2aac                	.2byte	0x2aac
    30fa:	0000                	.2byte	0x0
    30fc:	2aac                	.2byte	0x2aac
    30fe:	0000                	.2byte	0x0
    3100:	2eb0                	.2byte	0x2eb0
    3102:	0000                	.2byte	0x0
    3104:	3094                	.2byte	0x3094
    3106:	0000                	.2byte	0x0
    3108:	2b7c                	.2byte	0x2b7c
    310a:	0000                	.2byte	0x0
    310c:	2dc0                	.2byte	0x2dc0
    310e:	0000                	.2byte	0x0
    3110:	2b38                	.2byte	0x2b38
    3112:	0000                	.2byte	0x0
    3114:	4724                	.2byte	0x4724
    3116:	474e                	.2byte	0x474e
    3118:	00004147          	.4byte	0x4147
    311c:	4724                	.2byte	0x4724
    311e:	4750                	.2byte	0x4750
    3120:	00004147          	.4byte	0x4147
    3124:	6e28                	.2byte	0x6e28
    3126:	6c75                	.2byte	0x6c75
    3128:	296c                	.2byte	0x296c
    312a:	0000                	.2byte	0x0
    312c:	7325                	.2byte	0x7325
    312e:	000a                	.2byte	0xa
    3130:	614c                	.2byte	0x614c
    3132:	3a74                	.2byte	0x3a74
    3134:	2520                	.2byte	0x2520
    3136:	63252073          	.4byte	0x63252073
    313a:	000a                	.2byte	0xa
    313c:	6f4c                	.2byte	0x6f4c
    313e:	3a6e                	.2byte	0x3a6e
    3140:	2520                	.2byte	0x2520
    3142:	63252073          	.4byte	0x63252073
    3146:	000a                	.2byte	0xa
    3148:	614c                	.2byte	0x614c
    314a:	2074                	.2byte	0x2074
    314c:	6564                	.2byte	0x6564
    314e:	25203a63          	.4byte	0x25203a63
    3152:	2e64                	.2byte	0x2e64
    3154:	3025                	.2byte	0x3025
    3156:	6436                	.2byte	0x6436
    3158:	000a                	.2byte	0xa
    315a:	0000                	.2byte	0x0
    315c:	6f4c                	.2byte	0x6f4c
    315e:	206e                	.2byte	0x206e
    3160:	6564                	.2byte	0x6564
    3162:	25203a63          	.4byte	0x25203a63
    3166:	2e64                	.2byte	0x2e64
    3168:	3025                	.2byte	0x3025
    316a:	6436                	.2byte	0x6436
    316c:	000a                	.2byte	0xa
    316e:	0000                	.2byte	0x0
    3170:	3a535047          	.4byte	0x3a535047
    3174:	4e20                	.2byte	0x4e20
    3176:	6168206f          	j	8578c <_ebss+0x81a44>
    317a:	2079                	.2byte	0x2079
    317c:	6164                	.2byte	0x6164
    317e:	6f74                	.2byte	0x6f74
    3180:	47472073          	.4byte	0x47472073
    3184:	2041                	.2byte	0x2041
    3186:	6176                	.2byte	0x6176
    3188:	696c                	.2byte	0x696c
    318a:	6f64                	.2byte	0x6f64
    318c:	00000a73          	.4byte	0xa73
    3190:	540a                	.2byte	0x540a
    3192:	4152                	.2byte	0x4152
    3194:	2050                	.2byte	0x2050
    3196:	7461                	.2byte	0x7461
    3198:	3020                	.2byte	0x3020
    319a:	2578                	.2byte	0x2578
    319c:	0a78                	.2byte	0xa78
    319e:	0000                	.2byte	0x0
    31a0:	694d                	.2byte	0x694d
    31a2:	6964                	.2byte	0x6964
    31a4:	6e65                	.2byte	0x6e65
    31a6:	6f64                	.2byte	0x6f64
    31a8:	4320                	.2byte	0x4320
    31aa:	65202c4f          	.4byte	0x65202c4f
    31ae:	72657073          	.4byte	0x72657073
    31b2:	7261                	.2byte	0x7261
    31b4:	3620                	.2byte	0x3620
    31b6:	2030                	.2byte	0x2030
    31b8:	75676573          	.4byte	0x75676573
    31bc:	646e                	.2byte	0x646e
    31be:	2e2e736f          	jal	t1,ea4a0 <_ebss+0xe6758>
    31c2:	0a2e                	.2byte	0xa2e
    31c4:	0000                	.2byte	0x0
    31c6:	0000                	.2byte	0x0
    31c8:	6d204f43          	.4byte	0x6d204f43
    31cc:	6465                	.2byte	0x6465
    31ce:	6469                	.2byte	0x6469
    31d0:	25203a6f          	jal	s4,6422 <_ebss+0x26da>
    31d4:	2064                	.2byte	0x2064
    31d6:	7070                	.2byte	0x7070
    31d8:	206d                	.2byte	0x206d
    31da:	000a                	.2byte	0xa
    31dc:	694d                	.2byte	0x694d
    31de:	6964                	.2byte	0x6964
    31e0:	6e65                	.2byte	0x6e65
    31e2:	6f64                	.2byte	0x6f64
    31e4:	4320                	.2byte	0x4320
    31e6:	3448                	.2byte	0x3448
    31e8:	202c                	.2byte	0x202c
    31ea:	7365                	.2byte	0x7365
    31ec:	6570                	.2byte	0x6570
    31ee:	6172                	.2byte	0x6172
    31f0:	2072                	.2byte	0x2072
    31f2:	3039                	.2byte	0x3039
    31f4:	7320                	.2byte	0x7320
    31f6:	6765                	.2byte	0x6765
    31f8:	6e75                	.2byte	0x6e75
    31fa:	6f64                	.2byte	0x6f64
    31fc:	2e2e2e73          	.4byte	0x2e2e2e73
    3200:	000a                	.2byte	0xa
    3202:	0000                	.2byte	0x0
    3204:	20344843          	.4byte	0x20344843
    3208:	656d                	.2byte	0x656d
    320a:	6964                	.2byte	0x6964
    320c:	6f64                	.2byte	0x6f64
    320e:	203a                	.2byte	0x203a
    3210:	6425                	.2byte	0x6425
    3212:	7020                	.2byte	0x7020
    3214:	6d70                	.2byte	0x6d70
    3216:	0a20                	.2byte	0xa20
    3218:	0000                	.2byte	0x0
    321a:	0000                	.2byte	0x0
    321c:	654d                	.2byte	0x654d
    321e:	6964                	.2byte	0x6964
    3220:	6164                	.2byte	0x6164
    3222:	000a2073          	.4byte	0xa2073
    3226:	0000                	.2byte	0x0
    3228:	7372                	.2byte	0x7372
    322a:	25206973          	.4byte	0x25206973
    322e:	6434                	.2byte	0x6434
    3230:	202c                	.2byte	0x202c
    3232:	20726e73          	.4byte	0x20726e73
    3236:	3425                	.2byte	0x3425
    3238:	2064                	.2byte	0x2064
    323a:	003a                	.2byte	0x3a
    323c:	32315853          	.4byte	0x32315853
    3240:	3236                	.2byte	0x3236
    3242:	7020                	.2byte	0x7020
    3244:	6572                	.2byte	0x6572
    3246:	746e6573          	.4byte	0x746e6573
    324a:	000a                	.2byte	0xa
    324c:	0a0a                	.2byte	0xa0a
    324e:	2020                	.2byte	0x2020
    3250:	2020                	.2byte	0x2020
    3252:	2020                	.2byte	0x2020
    3254:	7c20                	.2byte	0x7c20
    3256:	7c20                	.2byte	0x7c20
    3258:	7c20                	.2byte	0x7c20
    325a:	7c20                	.2byte	0x7c20
    325c:	2020                	.2byte	0x2020
    325e:	2020                	.2byte	0x2020
    3260:	2020                	.2byte	0x2020
    3262:	2020                	.2byte	0x2020
    3264:	2020                	.2byte	0x2020
    3266:	2020                	.2byte	0x2020
    3268:	2020                	.2byte	0x2020
    326a:	2020                	.2byte	0x2020
    326c:	2020                	.2byte	0x2020
    326e:	2020                	.2byte	0x2020
    3270:	2020                	.2byte	0x2020
    3272:	2820                	.2byte	0x2820
    3274:	7c20                	.2byte	0x7c20
    3276:	2920                	.2byte	0x2920
    3278:	2020                	.2byte	0x2020
    327a:	200a                	.2byte	0x200a
    327c:	2020                	.2byte	0x2020
    327e:	2020                	.2byte	0x2020
    3280:	2d2d2d2b          	.4byte	0x2d2d2d2b
    3284:	2d2d                	.2byte	0x2d2d
    3286:	2d2d                	.2byte	0x2d2d
    3288:	2d2d                	.2byte	0x2d2d
    328a:	2020202b          	.4byte	0x2020202b
    328e:	2020                	.2byte	0x2020
    3290:	2020                	.2byte	0x2020
    3292:	2020                	.2byte	0x2020
    3294:	2020                	.2byte	0x2020
    3296:	2020                	.2byte	0x2020
    3298:	2020                	.2byte	0x2020
    329a:	2020                	.2byte	0x2020
    329c:	2020                	.2byte	0x2020
    329e:	2820                	.2byte	0x2820
    32a0:	2020                	.2byte	0x2020
    32a2:	207c                	.2byte	0x207c
    32a4:	2920                	.2byte	0x2920
    32a6:	0a20                	.2byte	0xa20
    32a8:	2020                	.2byte	0x2020
    32aa:	2d2d                	.2byte	0x2d2d
    32ac:	7c2d                	.2byte	0x7c2d
    32ae:	2020                	.2byte	0x2020
    32b0:	2020                	.2byte	0x2020
    32b2:	2020                	.2byte	0x2020
    32b4:	2020                	.2byte	0x2020
    32b6:	7c20                	.2byte	0x7c20
    32b8:	2020                	.2byte	0x2020
    32ba:	2020                	.2byte	0x2020
    32bc:	2020                	.2byte	0x2020
    32be:	2020                	.2byte	0x2020
    32c0:	2020                	.2byte	0x2020
    32c2:	2020                	.2byte	0x2020
    32c4:	2020                	.2byte	0x2020
    32c6:	2020                	.2byte	0x2020
    32c8:	2020                	.2byte	0x2020
    32ca:	2020                	.2byte	0x2020
    32cc:	2020                	.2byte	0x2020
    32ce:	7c20                	.2byte	0x7c20
    32d0:	2020                	.2byte	0x2020
    32d2:	0a20                	.2byte	0xa20
    32d4:	2020                	.2byte	0x2020
    32d6:	2d2d                	.2byte	0x2d2d
    32d8:	7c2d                	.2byte	0x7c2d
    32da:	2020                	.2byte	0x2020
    32dc:	4956                	.2byte	0x4956
    32de:	4d4d                	.2byte	0x4d4d
    32e0:	4341                	.2byte	0x4341
    32e2:	7c20                	.2byte	0x7c20
    32e4:	2d2d                	.2byte	0x2d2d
    32e6:	2d2d                	.2byte	0x2d2d
    32e8:	2d2d                	.2byte	0x2d2d
    32ea:	2d2d                	.2byte	0x2d2d
    32ec:	2d2d                	.2byte	0x2d2d
    32ee:	2d2d                	.2byte	0x2d2d
    32f0:	2d2d                	.2byte	0x2d2d
    32f2:	2d2d                	.2byte	0x2d2d
    32f4:	2d2d                	.2byte	0x2d2d
    32f6:	2d2d                	.2byte	0x2d2d
    32f8:	2d2d                	.2byte	0x2d2d
    32fa:	7c2d                	.2byte	0x7c2d
    32fc:	2020                	.2byte	0x2020
    32fe:	0a20                	.2byte	0xa20
    3300:	2020                	.2byte	0x2020
    3302:	2d2d                	.2byte	0x2d2d
    3304:	7c2d                	.2byte	0x7c2d
    3306:	2020                	.2byte	0x2020
    3308:	2020                	.2byte	0x2020
    330a:	2020                	.2byte	0x2020
    330c:	2020                	.2byte	0x2020
    330e:	7c20                	.2byte	0x7c20
    3310:	2020                	.2byte	0x2020
    3312:	2020                	.2byte	0x2020
    3314:	2020                	.2byte	0x2020
    3316:	2020                	.2byte	0x2020
    3318:	2020                	.2byte	0x2020
    331a:	2020                	.2byte	0x2020
    331c:	2020                	.2byte	0x2020
    331e:	2020                	.2byte	0x2020
    3320:	2020                	.2byte	0x2020
    3322:	2020                	.2byte	0x2020
    3324:	2020                	.2byte	0x2020
    3326:	7c20                	.2byte	0x7c20
    3328:	2020                	.2byte	0x2020
    332a:	0a20                	.2byte	0xa20
    332c:	2020                	.2byte	0x2020
    332e:	2020                	.2byte	0x2020
    3330:	2b20                	.2byte	0x2b20
    3332:	2d2d                	.2byte	0x2d2d
    3334:	2d2d                	.2byte	0x2d2d
    3336:	2d2d                	.2byte	0x2d2d
    3338:	2d2d                	.2byte	0x2d2d
    333a:	2b2d                	.2byte	0x2b2d
    333c:	2020                	.2byte	0x2020
    333e:	2020                	.2byte	0x2020
    3340:	2020                	.2byte	0x2020
    3342:	2020                	.2byte	0x2020
    3344:	2020                	.2byte	0x2020
    3346:	2020                	.2byte	0x2020
    3348:	2020                	.2byte	0x2020
    334a:	2020                	.2byte	0x2020
    334c:	2020                	.2byte	0x2020
    334e:	2020                	.2byte	0x2020
    3350:	2020                	.2byte	0x2020
    3352:	205c202f          	.4byte	0x205c202f
    3356:	0a20                	.2byte	0xa20
    3358:	2020                	.2byte	0x2020
    335a:	2020                	.2byte	0x2020
    335c:	2020                	.2byte	0x2020
    335e:	7c20                	.2byte	0x7c20
    3360:	7c20                	.2byte	0x7c20
    3362:	7c20                	.2byte	0x7c20
    3364:	7c20                	.2byte	0x7c20
    3366:	2020                	.2byte	0x2020
    3368:	2020                	.2byte	0x2020
    336a:	2020                	.2byte	0x2020
    336c:	2020                	.2byte	0x2020
    336e:	2020                	.2byte	0x2020
    3370:	2020                	.2byte	0x2020
    3372:	2020                	.2byte	0x2020
    3374:	2020                	.2byte	0x2020
    3376:	2020                	.2byte	0x2020
    3378:	2020                	.2byte	0x2020
    337a:	2020                	.2byte	0x2020
    337c:	2f20                	.2byte	0x2f20
    337e:	2020                	.2byte	0x2020
    3380:	5c20                	.2byte	0x5c20
    3382:	0a20                	.2byte	0xa20
    3384:	0909                	.2byte	0x909
    3386:	0909                	.2byte	0x909
    3388:	0909                	.2byte	0x909
    338a:	0909                	.2byte	0x909
    338c:	0909                	.2byte	0x909
    338e:	0a09                	.2byte	0xa09
    3390:	200a                	.2byte	0x200a
    3392:	2020                	.2byte	0x2020
    3394:	2056                	.2byte	0x2056
    3396:	2020                	.2byte	0x2020
    3398:	2020                	.2byte	0x2020
    339a:	2056                	.2byte	0x2056
    339c:	4920                	.2byte	0x4920
    339e:	4949                	.2byte	0x4949
    33a0:	2020                	.2byte	0x2020
    33a2:	204d                	.2byte	0x204d
    33a4:	2020                	.2byte	0x2020
    33a6:	2020                	.2byte	0x2020
    33a8:	204d                	.2byte	0x204d
    33aa:	4d20                	.2byte	0x4d20
    33ac:	2020                	.2byte	0x2020
    33ae:	2020                	.2byte	0x2020
    33b0:	4d20                	.2byte	0x4d20
    33b2:	2020                	.2byte	0x2020
    33b4:	4120                	.2byte	0x4120
    33b6:	4141                	.2byte	0x4141
    33b8:	4141                	.2byte	0x4141
    33ba:	2020                	.2byte	0x2020
    33bc:	4320                	.2byte	0x4320
    33be:	43434343          	.4byte	0x43434343
    33c2:	200a                	.2byte	0x200a
    33c4:	2020                	.2byte	0x2020
    33c6:	2056                	.2byte	0x2056
    33c8:	2020                	.2byte	0x2020
    33ca:	2020                	.2byte	0x2020
    33cc:	2056                	.2byte	0x2056
    33ce:	2020                	.2byte	0x2020
    33d0:	2049                	.2byte	0x2049
    33d2:	2020                	.2byte	0x2020
    33d4:	4d4d                	.2byte	0x4d4d
    33d6:	2020                	.2byte	0x2020
    33d8:	4d20                	.2byte	0x4d20
    33da:	204d                	.2byte	0x204d
    33dc:	4d20                	.2byte	0x4d20
    33de:	204d                	.2byte	0x204d
    33e0:	2020                	.2byte	0x2020
    33e2:	4d4d                	.2byte	0x4d4d
    33e4:	2020                	.2byte	0x2020
    33e6:	2041                	.2byte	0x2041
    33e8:	2020                	.2byte	0x2020
    33ea:	2020                	.2byte	0x2020
    33ec:	2041                	.2byte	0x2041
    33ee:	4320                	.2byte	0x4320
    33f0:	200a                	.2byte	0x200a
    33f2:	2020                	.2byte	0x2020
    33f4:	5620                	.2byte	0x5620
    33f6:	2020                	.2byte	0x2020
    33f8:	5620                	.2byte	0x5620
    33fa:	2020                	.2byte	0x2020
    33fc:	2020                	.2byte	0x2020
    33fe:	2049                	.2byte	0x2049
    3400:	2020                	.2byte	0x2020
    3402:	204d                	.2byte	0x204d
    3404:	204d                	.2byte	0x204d
    3406:	204d                	.2byte	0x204d
    3408:	204d                	.2byte	0x204d
    340a:	4d20                	.2byte	0x4d20
    340c:	4d20                	.2byte	0x4d20
    340e:	4d20                	.2byte	0x4d20
    3410:	4d20                	.2byte	0x4d20
    3412:	2020                	.2byte	0x2020
    3414:	4141                	.2byte	0x4141
    3416:	4141                	.2byte	0x4141
    3418:	4141                	.2byte	0x4141
    341a:	2041                	.2byte	0x2041
    341c:	4320                	.2byte	0x4320
    341e:	200a                	.2byte	0x200a
    3420:	2020                	.2byte	0x2020
    3422:	2020                	.2byte	0x2020
    3424:	2056                	.2byte	0x2056
    3426:	2056                	.2byte	0x2056
    3428:	2020                	.2byte	0x2020
    342a:	2020                	.2byte	0x2020
    342c:	2049                	.2byte	0x2049
    342e:	2020                	.2byte	0x2020
    3430:	204d                	.2byte	0x204d
    3432:	4d20                	.2byte	0x4d20
    3434:	2020                	.2byte	0x2020
    3436:	204d                	.2byte	0x204d
    3438:	4d20                	.2byte	0x4d20
    343a:	2020                	.2byte	0x2020
    343c:	204d                	.2byte	0x204d
    343e:	4d20                	.2byte	0x4d20
    3440:	2020                	.2byte	0x2020
    3442:	2041                	.2byte	0x2041
    3444:	2020                	.2byte	0x2020
    3446:	2020                	.2byte	0x2020
    3448:	2041                	.2byte	0x2041
    344a:	4320                	.2byte	0x4320
    344c:	200a                	.2byte	0x200a
    344e:	2020                	.2byte	0x2020
    3450:	2020                	.2byte	0x2020
    3452:	5620                	.2byte	0x5620
    3454:	2020                	.2byte	0x2020
    3456:	2020                	.2byte	0x2020
    3458:	4920                	.2byte	0x4920
    345a:	4949                	.2byte	0x4949
    345c:	2020                	.2byte	0x2020
    345e:	204d                	.2byte	0x204d
    3460:	2020                	.2byte	0x2020
    3462:	2020                	.2byte	0x2020
    3464:	204d                	.2byte	0x204d
    3466:	4d20                	.2byte	0x4d20
    3468:	2020                	.2byte	0x2020
    346a:	2020                	.2byte	0x2020
    346c:	4d20                	.2byte	0x4d20
    346e:	2020                	.2byte	0x2020
    3470:	2041                	.2byte	0x2041
    3472:	2020                	.2byte	0x2020
    3474:	2020                	.2byte	0x2020
    3476:	2041                	.2byte	0x2041
    3478:	4320                	.2byte	0x4320
    347a:	43434343          	.4byte	0x43434343
    347e:	0a0a                	.2byte	0xa0a
    3480:	2020                	.2byte	0x2020
    3482:	2020                	.2byte	0x2020
    3484:	2020                	.2byte	0x2020
    3486:	2020                	.2byte	0x2020
    3488:	2020                	.2byte	0x2020
    348a:	2020                	.2byte	0x2020
    348c:	5f5f 5f5f 205f      	.byte	0x5f, 0x5f, 0x5f, 0x5f, 0x5f, 0x20
    3492:	5f5f 5f5f 205f      	.byte	0x5f, 0x5f, 0x5f, 0x5f, 0x5f, 0x20
    3498:	5f5f 5f5f 5f20      	.byte	0x5f, 0x5f, 0x5f, 0x5f, 0x20, 0x5f
    349e:	2020                	.2byte	0x2020
    34a0:	5f20                	.2byte	0x5f20
    34a2:	0a20                	.2byte	0xa20
    34a4:	2020                	.2byte	0x2020
    34a6:	2020                	.2byte	0x2020
    34a8:	2020                	.2byte	0x2020
    34aa:	2020                	.2byte	0x2020
    34ac:	2020                	.2byte	0x2020
    34ae:	7c20                	.2byte	0x7c20
    34b0:	205f 2020 7c5f      	.byte	0x5f, 0x20, 0x20, 0x20, 0x5f, 0x7c
    34b6:	5f20                	.2byte	0x5f20
    34b8:	5f5f 2f5f 5f20      	.byte	0x5f, 0x5f, 0x5f, 0x2f, 0x20, 0x5f
    34be:	5f5f 207c 207c      	.byte	0x5f, 0x5f, 0x7c, 0x20, 0x7c, 0x20
    34c4:	207c                	.2byte	0x207c
    34c6:	0a7c                	.2byte	0xa7c
    34c8:	2020                	.2byte	0x2020
    34ca:	2020                	.2byte	0x2020
    34cc:	2020                	.2byte	0x2020
    34ce:	2020                	.2byte	0x2020
    34d0:	2020                	.2byte	0x2020
    34d2:	2020                	.2byte	0x2020
    34d4:	7c20                	.2byte	0x7c20
    34d6:	7c20                	.2byte	0x7c20
    34d8:	7c20                	.2byte	0x7c20
    34da:	2020                	.2byte	0x2020
    34dc:	7c5f 207c 207c      	.byte	0x5f, 0x7c, 0x7c, 0x20, 0x7c, 0x20
    34e2:	2020                	.2byte	0x2020
    34e4:	207c                	.2byte	0x207c
    34e6:	5f7c                	.2byte	0x5f7c
    34e8:	207c                	.2byte	0x207c
    34ea:	0a7c                	.2byte	0xa7c
    34ec:	2020                	.2byte	0x2020
    34ee:	2020                	.2byte	0x2020
    34f0:	2020                	.2byte	0x2020
    34f2:	2020                	.2byte	0x2020
    34f4:	2020                	.2byte	0x2020
    34f6:	2020                	.2byte	0x2020
    34f8:	7c20                	.2byte	0x7c20
    34fa:	7c20                	.2byte	0x7c20
    34fc:	7c20                	.2byte	0x7c20
    34fe:	7c20                	.2byte	0x7c20
    3500:	5f5f 207c 5f7c      	.byte	0x5f, 0x5f, 0x7c, 0x20, 0x7c, 0x5f
    3506:	5f5f 207c 5f20      	.byte	0x5f, 0x5f, 0x7c, 0x20, 0x20, 0x5f
    350c:	2020                	.2byte	0x2020
    350e:	0a7c                	.2byte	0xa7c
    3510:	2020                	.2byte	0x2020
    3512:	2020                	.2byte	0x2020
    3514:	2020                	.2byte	0x2020
    3516:	2020                	.2byte	0x2020
    3518:	2020                	.2byte	0x2020
    351a:	2020                	.2byte	0x2020
    351c:	7c20                	.2byte	0x7c20
    351e:	7c5f 7c20 5f5f      	.byte	0x5f, 0x7c, 0x20, 0x7c, 0x5f, 0x5f
    3524:	5f5f 5c5f 5f5f      	.byte	0x5f, 0x5f, 0x5f, 0x5c, 0x5f, 0x5f
    352a:	5f5f 5f7c 207c      	.byte	0x5f, 0x5f, 0x7c, 0x5f, 0x7c, 0x20
    3530:	5f7c                	.2byte	0x5f7c
    3532:	0a7c                	.2byte	0xa7c
    3534:	0909                	.2byte	0x909
    3536:	0909                	.2byte	0x909
    3538:	0909                	.2byte	0x909
    353a:	0909                	.2byte	0x909
    353c:	0a09                	.2byte	0xa09
    353e:	2020                	.2byte	0x2020
    3540:	2020                	.2byte	0x2020
    3542:	2020                	.2byte	0x2020
    3544:	2020                	.2byte	0x2020
    3546:	5409                	.2byte	0x5409
    3548:	3150                	.2byte	0x3150
    354a:	4520                	.2byte	0x4520
    354c:	454c                	.2byte	0x454c
    354e:	4f525443          	.4byte	0x4f525443
    3552:	494e                	.2byte	0x494e
    3554:	0a0a5343          	.4byte	0xa0a5343
    3558:	000a                	.2byte	0xa
    355a:	0000                	.2byte	0x0
    355c:	2020                	.2byte	0x2020
    355e:	2020                	.2byte	0x2020
    3560:	2020                	.2byte	0x2020
    3562:	2020                	.2byte	0x2020
    3564:	5054                	.2byte	0x5054
    3566:	2031                	.2byte	0x2031
    3568:	70757247          	.4byte	0x70757247
    356c:	2d20316f          	jal	sp,683e <_ebss+0x2af6>
    3570:	6c20                	.2byte	0x6c20
    3572:	5261                	.2byte	0x5261
    3574:	6156                	.2byte	0x6156
    3576:	4920                	.2byte	0x4920
    3578:	6c20546f          	jal	s0,8c3a <_ebss+0x4ef2>
    357c:	6567676f          	jal	a4,79bd2 <_ebss+0x75e8a>
    3580:	0a72                	.2byte	0xa72
    3582:	0000                	.2byte	0x0
    3584:	2d0a                	.2byte	0x2d0a
    3586:	2d2d                	.2byte	0x2d2d
    3588:	2d2d                	.2byte	0x2d2d
    358a:	2d2d                	.2byte	0x2d2d
    358c:	2d2d                	.2byte	0x2d2d
    358e:	2d2d                	.2byte	0x2d2d
    3590:	2d2d                	.2byte	0x2d2d
    3592:	2d2d                	.2byte	0x2d2d
    3594:	2d2d                	.2byte	0x2d2d
    3596:	202d                	.2byte	0x202d
    3598:	4d09                	.2byte	0x4d09
    359a:	4e45                	.2byte	0x4e45
    359c:	2055                	.2byte	0x2055
    359e:	0920                	.2byte	0x920
    35a0:	2020                	.2byte	0x2020
    35a2:	2d2d                	.2byte	0x2d2d
    35a4:	2d2d                	.2byte	0x2d2d
    35a6:	2d2d                	.2byte	0x2d2d
    35a8:	2d2d                	.2byte	0x2d2d
    35aa:	2d2d                	.2byte	0x2d2d
    35ac:	2d2d                	.2byte	0x2d2d
    35ae:	2d2d                	.2byte	0x2d2d
    35b0:	2d2d                	.2byte	0x2d2d
    35b2:	0a2d                	.2byte	0xa2d
    35b4:	2d2d                	.2byte	0x2d2d
    35b6:	2d2d                	.2byte	0x2d2d
    35b8:	2d2d                	.2byte	0x2d2d
    35ba:	2d2d                	.2byte	0x2d2d
    35bc:	2d2d                	.2byte	0x2d2d
    35be:	2d2d                	.2byte	0x2d2d
    35c0:	2d2d                	.2byte	0x2d2d
    35c2:	2d2d                	.2byte	0x2d2d
    35c4:	2d2d                	.2byte	0x2d2d
    35c6:	2d2d                	.2byte	0x2d2d
    35c8:	2d2d                	.2byte	0x2d2d
    35ca:	2d2d                	.2byte	0x2d2d
    35cc:	2d2d                	.2byte	0x2d2d
    35ce:	2d2d                	.2byte	0x2d2d
    35d0:	2d2d                	.2byte	0x2d2d
    35d2:	2d2d                	.2byte	0x2d2d
    35d4:	2d2d                	.2byte	0x2d2d
    35d6:	2d2d                	.2byte	0x2d2d
    35d8:	2d2d                	.2byte	0x2d2d
    35da:	2d2d                	.2byte	0x2d2d
    35dc:	2d2d                	.2byte	0x2d2d
    35de:	2d2d                	.2byte	0x2d2d
    35e0:	2d2d                	.2byte	0x2d2d
    35e2:	2d2d                	.2byte	0x2d2d
    35e4:	2d2d                	.2byte	0x2d2d
    35e6:	7c0a                	.2byte	0x7c0a
    35e8:	2020                	.2byte	0x2020
    35ea:	2020                	.2byte	0x2020
    35ec:	2020                	.2byte	0x2020
    35ee:	2020                	.2byte	0x2020
    35f0:	2020                	.2byte	0x2020
    35f2:	2020                	.2byte	0x2020
    35f4:	2020                	.2byte	0x2020
    35f6:	2020                	.2byte	0x2020
    35f8:	2020                	.2byte	0x2020
    35fa:	2020                	.2byte	0x2020
    35fc:	2020                	.2byte	0x2020
    35fe:	2020                	.2byte	0x2020
    3600:	2020                	.2byte	0x2020
    3602:	2020                	.2byte	0x2020
    3604:	2020                	.2byte	0x2020
    3606:	2020                	.2byte	0x2020
    3608:	2020                	.2byte	0x2020
    360a:	2020                	.2byte	0x2020
    360c:	2020                	.2byte	0x2020
    360e:	2020                	.2byte	0x2020
    3610:	2020                	.2byte	0x2020
    3612:	2020                	.2byte	0x2020
    3614:	2020                	.2byte	0x2020
    3616:	2020                	.2byte	0x2020
    3618:	0a7c                	.2byte	0xa7c
    361a:	207c                	.2byte	0x207c
    361c:	2020                	.2byte	0x2020
    361e:	5320                	.2byte	0x5320
    3620:	6c65                	.2byte	0x6c65
    3622:	6365                	.2byte	0x6365
    3624:	6e6f6963          	bltu	t5,t1,3d16 <lora_rx_buffer+0x7e>
    3628:	3a65                	.2byte	0x3a65
    362a:	7320                	.2byte	0x7320
    362c:	2d20                	.2byte	0x2d20
    362e:	203e                	.2byte	0x203e
    3630:	6156                	.2byte	0x6156
    3632:	6f6c                	.2byte	0x6f6c
    3634:	6572                	.2byte	0x6572
    3636:	65642073          	.4byte	0x65642073
    363a:	6c20                	.2byte	0x6c20
    363c:	7320736f          	jal	t1,ad6e <_ebss+0x7026>
    3640:	6e65                	.2byte	0x6e65
    3642:	65726f73          	.4byte	0x65726f73
    3646:	20202073          	.4byte	0x20202073
    364a:	7c20                	.2byte	0x7c20
    364c:	7c0a                	.2byte	0x7c0a
    364e:	2020                	.2byte	0x2020
    3650:	2020                	.2byte	0x2020
    3652:	656c6553          	.4byte	0x656c6553
    3656:	6f696363          	bltu	s2,s6,3d3c <wrix2>
    365a:	656e                	.2byte	0x656e
    365c:	203a                	.2byte	0x203a
    365e:	2066                	.2byte	0x2066
    3660:	3e2d                	.2byte	0x3e2d
    3662:	5320                	.2byte	0x5320
    3664:	6e65                	.2byte	0x6e65
    3666:	20726f73          	.4byte	0x20726f73
    366a:	6564                	.2byte	0x6564
    366c:	6720                	.2byte	0x6720
    366e:	7361                	.2byte	0x7361
    3670:	7365                	.2byte	0x7365
    3672:	2020                	.2byte	0x2020
    3674:	2020                	.2byte	0x2020
    3676:	2020                	.2byte	0x2020
    3678:	2020                	.2byte	0x2020
    367a:	2020                	.2byte	0x2020
    367c:	2020                	.2byte	0x2020
    367e:	0a7c                	.2byte	0xa7c
    3680:	207c                	.2byte	0x207c
    3682:	2020                	.2byte	0x2020
    3684:	5320                	.2byte	0x5320
    3686:	6c65                	.2byte	0x6c65
    3688:	6365                	.2byte	0x6365
    368a:	6e6f6963          	bltu	t5,t1,3d7c <_ebss+0x34>
    368e:	3a65                	.2byte	0x3a65
    3690:	7020                	.2byte	0x7020
    3692:	2d20                	.2byte	0x2d20
    3694:	203e                	.2byte	0x203e
    3696:	6f50                	.2byte	0x6f50
    3698:	766c                	.2byte	0x766c
    369a:	5047206f          	j	75b9e <_ebss+0x71e56>
    369e:	5932                	.2byte	0x5932
    36a0:	3031                	.2byte	0x3031
    36a2:	3031                	.2byte	0x3031
    36a4:	2020                	.2byte	0x2020
    36a6:	2020                	.2byte	0x2020
    36a8:	2020                	.2byte	0x2020
    36aa:	2020                	.2byte	0x2020
    36ac:	2020                	.2byte	0x2020
    36ae:	2020                	.2byte	0x2020
    36b0:	7c20                	.2byte	0x7c20
    36b2:	7c0a                	.2byte	0x7c0a
    36b4:	2020                	.2byte	0x2020
    36b6:	2020                	.2byte	0x2020
    36b8:	656c6553          	.4byte	0x656c6553
    36bc:	6f696363          	bltu	s2,s6,3da2 <_ebss+0x5a>
    36c0:	656e                	.2byte	0x656e
    36c2:	203a                	.2byte	0x203a
    36c4:	2061                	.2byte	0x2061
    36c6:	3e2d                	.2byte	0x3e2d
    36c8:	4120                	.2byte	0x4120
    36ca:	4344                	.2byte	0x4344
    36cc:	4d20                	.2byte	0x4d20
    36ce:	30335043          	.4byte	0x30335043
    36d2:	3430                	.2byte	0x3430
    36d4:	2020                	.2byte	0x2020
    36d6:	2020                	.2byte	0x2020
    36d8:	2020                	.2byte	0x2020
    36da:	2020                	.2byte	0x2020
    36dc:	2020                	.2byte	0x2020
    36de:	2020                	.2byte	0x2020
    36e0:	2020                	.2byte	0x2020
    36e2:	2020                	.2byte	0x2020
    36e4:	0a7c                	.2byte	0xa7c
    36e6:	207c                	.2byte	0x207c
    36e8:	2020                	.2byte	0x2020
    36ea:	5320                	.2byte	0x5320
    36ec:	6c65                	.2byte	0x6c65
    36ee:	6365                	.2byte	0x6365
    36f0:	6e6f6963          	bltu	t5,t1,3de2 <_ebss+0x9a>
    36f4:	3a65                	.2byte	0x3a65
    36f6:	7220                	.2byte	0x7220
    36f8:	2d20                	.2byte	0x2d20
    36fa:	203e                	.2byte	0x203e
    36fc:	6552                	.2byte	0x6552
    36fe:	69626963          	bltu	tp,s6,3d90 <_ebss+0x48>
    3702:	2072                	.2byte	0x2072
    3704:	6f4c                	.2byte	0x6f4c
    3706:	6152                	.2byte	0x6152
    3708:	2020                	.2byte	0x2020
    370a:	2020                	.2byte	0x2020
    370c:	2020                	.2byte	0x2020
    370e:	2020                	.2byte	0x2020
    3710:	2020                	.2byte	0x2020
    3712:	2020                	.2byte	0x2020
    3714:	2020                	.2byte	0x2020
    3716:	7c20                	.2byte	0x7c20
    3718:	7c0a                	.2byte	0x7c0a
    371a:	2020                	.2byte	0x2020
    371c:	2020                	.2byte	0x2020
    371e:	656c6553          	.4byte	0x656c6553
    3722:	6f696363          	bltu	s2,s6,3e08 <_ebss+0xc0>
    3726:	656e                	.2byte	0x656e
    3728:	203a                	.2byte	0x203a
    372a:	2074                	.2byte	0x2074
    372c:	3e2d                	.2byte	0x3e2d
    372e:	5420                	.2byte	0x5420
    3730:	6172                	.2byte	0x6172
    3732:	736e                	.2byte	0x736e
    3734:	696d                	.2byte	0x696d
    3736:	6974                	.2byte	0x6974
    3738:	2072                	.2byte	0x2072
    373a:	6f4c                	.2byte	0x6f4c
    373c:	6152                	.2byte	0x6152
    373e:	2020                	.2byte	0x2020
    3740:	2020                	.2byte	0x2020
    3742:	2020                	.2byte	0x2020
    3744:	2020                	.2byte	0x2020
    3746:	2020                	.2byte	0x2020
    3748:	2020                	.2byte	0x2020
    374a:	0a7c                	.2byte	0xa7c
    374c:	207c                	.2byte	0x207c
    374e:	2020                	.2byte	0x2020
    3750:	5320                	.2byte	0x5320
    3752:	6c65                	.2byte	0x6c65
    3754:	6365                	.2byte	0x6365
    3756:	6e6f6963          	bltu	t5,t1,3e48 <_ebss+0x100>
    375a:	3a65                	.2byte	0x3a65
    375c:	6320                	.2byte	0x6320
    375e:	2d20                	.2byte	0x2d20
    3760:	203e                	.2byte	0x203e
    3762:	6e45                	.2byte	0x6e45
    3764:	6976                	.2byte	0x6976
    3766:	6f4c206f          	j	c5e5a <_ebss+0xc2112>
    376a:	6152                	.2byte	0x6152
    376c:	6320                	.2byte	0x6320
    376e:	69746e6f          	jal	t3,4a604 <_ebss+0x468bc>
    3772:	756e                	.2byte	0x756e
    3774:	2020206f          	j	5976 <_ebss+0x1c2e>
    3778:	2020                	.2byte	0x2020
    377a:	2020                	.2byte	0x2020
    377c:	7c20                	.2byte	0x7c20
    377e:	7c0a                	.2byte	0x7c0a
    3780:	2020                	.2byte	0x2020
    3782:	2020                	.2byte	0x2020
    3784:	656c6553          	.4byte	0x656c6553
    3788:	6f696363          	bltu	s2,s6,3e6e <_ebss+0x126>
    378c:	656e                	.2byte	0x656e
    378e:	203a                	.2byte	0x203a
    3790:	3e2d2067          	.4byte	0x3e2d2067
    3794:	4720                	.2byte	0x4720
    3796:	5350                	.2byte	0x5350
    3798:	2020                	.2byte	0x2020
    379a:	2020                	.2byte	0x2020
    379c:	2020                	.2byte	0x2020
    379e:	2020                	.2byte	0x2020
    37a0:	2020                	.2byte	0x2020
    37a2:	2020                	.2byte	0x2020
    37a4:	2020                	.2byte	0x2020
    37a6:	2020                	.2byte	0x2020
    37a8:	2020                	.2byte	0x2020
    37aa:	2020                	.2byte	0x2020
    37ac:	2020                	.2byte	0x2020
    37ae:	2020                	.2byte	0x2020
    37b0:	0a7c                	.2byte	0xa7c
    37b2:	207c                	.2byte	0x207c
    37b4:	2020                	.2byte	0x2020
    37b6:	5320                	.2byte	0x5320
    37b8:	6c65                	.2byte	0x6c65
    37ba:	6365                	.2byte	0x6365
    37bc:	6e6f6963          	bltu	t5,t1,3eae <_ebss+0x166>
    37c0:	3a65                	.2byte	0x3a65
    37c2:	6420                	.2byte	0x6420
    37c4:	2d20                	.2byte	0x2d20
    37c6:	203e                	.2byte	0x203e
    37c8:	6544                	.2byte	0x6544
    37ca:	7562                	.2byte	0x7562
    37cc:	65642067          	.4byte	0x65642067
    37d0:	7320                	.2byte	0x7320
    37d2:	6e65                	.2byte	0x6e65
    37d4:	65726f73          	.4byte	0x65726f73
    37d8:	20202073          	.4byte	0x20202073
    37dc:	2020                	.2byte	0x2020
    37de:	2020                	.2byte	0x2020
    37e0:	2020                	.2byte	0x2020
    37e2:	7c20                	.2byte	0x7c20
    37e4:	7c0a                	.2byte	0x7c0a
    37e6:	2020                	.2byte	0x2020
    37e8:	2020                	.2byte	0x2020
    37ea:	656c6553          	.4byte	0x656c6553
    37ee:	6f696363          	bltu	s2,s6,3ed4 <_ebss+0x18c>
    37f2:	656e                	.2byte	0x656e
    37f4:	203a                	.2byte	0x203a
    37f6:	2065                	.2byte	0x2065
    37f8:	3e2d                	.2byte	0x3e2d
    37fa:	4c20                	.2byte	0x4c20
    37fc:	206f676f          	jal	a4,f9a02 <_ebss+0xf5cba>
    3800:	6564                	.2byte	0x6564
    3802:	206c                	.2byte	0x206c
    3804:	7165                	.2byte	0x7165
    3806:	6975                	.2byte	0x6975
    3808:	6f70                	.2byte	0x6f70
    380a:	2020                	.2byte	0x2020
    380c:	2020                	.2byte	0x2020
    380e:	2020                	.2byte	0x2020
    3810:	2020                	.2byte	0x2020
    3812:	2020                	.2byte	0x2020
    3814:	2020                	.2byte	0x2020
    3816:	0a7c                	.2byte	0xa7c
    3818:	207c                	.2byte	0x207c
    381a:	2020                	.2byte	0x2020
    381c:	5320                	.2byte	0x5320
    381e:	6c65                	.2byte	0x6c65
    3820:	6365                	.2byte	0x6365
    3822:	6e6f6963          	bltu	t5,t1,3f14 <_ebss+0x1cc>
    3826:	3a65                	.2byte	0x3a65
    3828:	7120                	.2byte	0x7120
    382a:	2d20                	.2byte	0x2d20
    382c:	203e                	.2byte	0x203e
    382e:	696c6153          	.4byte	0x696c6153
    3832:	2072                	.2byte	0x2072
    3834:	2020                	.2byte	0x2020
    3836:	2020                	.2byte	0x2020
    3838:	2020                	.2byte	0x2020
    383a:	2020                	.2byte	0x2020
    383c:	2020                	.2byte	0x2020
    383e:	2020                	.2byte	0x2020
    3840:	2020                	.2byte	0x2020
    3842:	2020                	.2byte	0x2020
    3844:	2020                	.2byte	0x2020
    3846:	2020                	.2byte	0x2020
    3848:	7c20                	.2byte	0x7c20
    384a:	7c0a                	.2byte	0x7c0a
    384c:	2020                	.2byte	0x2020
    384e:	2020                	.2byte	0x2020
    3850:	2020                	.2byte	0x2020
    3852:	2020                	.2byte	0x2020
    3854:	2020                	.2byte	0x2020
    3856:	2020                	.2byte	0x2020
    3858:	2020                	.2byte	0x2020
    385a:	2020                	.2byte	0x2020
    385c:	2020                	.2byte	0x2020
    385e:	2020                	.2byte	0x2020
    3860:	2020                	.2byte	0x2020
    3862:	2020                	.2byte	0x2020
    3864:	2020                	.2byte	0x2020
    3866:	2020                	.2byte	0x2020
    3868:	2020                	.2byte	0x2020
    386a:	2020                	.2byte	0x2020
    386c:	2020                	.2byte	0x2020
    386e:	2020                	.2byte	0x2020
    3870:	2020                	.2byte	0x2020
    3872:	2020                	.2byte	0x2020
    3874:	2020                	.2byte	0x2020
    3876:	2020                	.2byte	0x2020
    3878:	2020                	.2byte	0x2020
    387a:	2020                	.2byte	0x2020
    387c:	0a7c                	.2byte	0xa7c
    387e:	2d2d                	.2byte	0x2d2d
    3880:	2d2d                	.2byte	0x2d2d
    3882:	2d2d                	.2byte	0x2d2d
    3884:	2d2d                	.2byte	0x2d2d
    3886:	2d2d                	.2byte	0x2d2d
    3888:	2d2d                	.2byte	0x2d2d
    388a:	2d2d                	.2byte	0x2d2d
    388c:	2d2d                	.2byte	0x2d2d
    388e:	2d2d                	.2byte	0x2d2d
    3890:	2d2d                	.2byte	0x2d2d
    3892:	2d2d                	.2byte	0x2d2d
    3894:	2d2d                	.2byte	0x2d2d
    3896:	2d2d                	.2byte	0x2d2d
    3898:	2d2d                	.2byte	0x2d2d
    389a:	2d2d                	.2byte	0x2d2d
    389c:	2d2d                	.2byte	0x2d2d
    389e:	2d2d                	.2byte	0x2d2d
    38a0:	2d2d                	.2byte	0x2d2d
    38a2:	2d2d                	.2byte	0x2d2d
    38a4:	2d2d                	.2byte	0x2d2d
    38a6:	2d2d                	.2byte	0x2d2d
    38a8:	2d2d                	.2byte	0x2d2d
    38aa:	2d2d                	.2byte	0x2d2d
    38ac:	2d2d                	.2byte	0x2d2d
    38ae:	2d2d                	.2byte	0x2d2d
    38b0:	0a0a                	.2byte	0xa0a
    38b2:	000a                	.2byte	0xa
    38b4:	6f4d                	.2byte	0x6f4d
    38b6:	7564                	.2byte	0x7564
    38b8:	6f6c                	.2byte	0x6f6c
    38ba:	4c20                	.2byte	0x4c20
    38bc:	2061526f          	jal	tp,18ac2 <_ebss+0x14d7a>
    38c0:	6e69                	.2byte	0x6e69
    38c2:	6369                	.2byte	0x6369
    38c4:	6169                	.2byte	0x6169
    38c6:	6f64                	.2byte	0x6f64
    38c8:	000a                	.2byte	0xa
    38ca:	0000                	.2byte	0x0
    38cc:	70757247          	.4byte	0x70757247
    38d0:	0031206f          	j	160d2 <_ebss+0x1238a>
    38d4:	7245                	.2byte	0x7245
    38d6:	6f72                	.2byte	0x6f72
    38d8:	2072                	.2byte	0x2072
    38da:	6c61                	.2byte	0x6c61
    38dc:	6920                	.2byte	0x6920
    38de:	696e                	.2byte	0x696e
    38e0:	72616963          	bltu	sp,t1,4012 <_ebss+0x2ca>
    38e4:	6520                	.2byte	0x6520
    38e6:	206c                	.2byte	0x206c
    38e8:	6f4c                	.2byte	0x6f4c
    38ea:	6152                	.2byte	0x6152
    38ec:	000a                	.2byte	0xa
    38ee:	0000                	.2byte	0x0
    38f0:	6f4d                	.2byte	0x6f4d
    38f2:	6f64                	.2byte	0x6f64
    38f4:	7220                	.2byte	0x7220
    38f6:	6365                	.2byte	0x6365
    38f8:	7065                	.2byte	0x7065
    38fa:	6e6f6963          	bltu	t5,t1,3fec <_ebss+0x2a4>
    38fe:	4c20                	.2byte	0x4c20
    3900:	2061526f          	jal	tp,18b06 <_ebss+0x14dbe>
    3904:	7428                	.2byte	0x7428
    3906:	6365                	.2byte	0x6365
    3908:	616c                	.2byte	0x616c
    390a:	7020                	.2byte	0x7020
    390c:	7261                	.2byte	0x7261
    390e:	2061                	.2byte	0x2061
    3910:	696c6173          	.4byte	0x696c6173
    3914:	2972                	.2byte	0x2972
    3916:	000a                	.2byte	0xa
    3918:	6150                	.2byte	0x6150
    391a:	7571                	.2byte	0x7571
    391c:	7465                	.2byte	0x7465
    391e:	2065                	.2byte	0x2065
    3920:	6572                	.2byte	0x6572
    3922:	69626963          	bltu	tp,s6,3fb4 <_ebss+0x26c>
    3926:	6f64                	.2byte	0x6f64
    3928:	2820                	.2byte	0x2820
    392a:	6425                	.2byte	0x6425
    392c:	6220                	.2byte	0x6220
    392e:	7479                	.2byte	0x7479
    3930:	7365                	.2byte	0x7365
    3932:	3a29                	.2byte	0x3a29
    3934:	0020                	.2byte	0x20
    3936:	0000                	.2byte	0x0
    3938:	6e45                	.2byte	0x6e45
    393a:	6976                	.2byte	0x6976
    393c:	6f4c206f          	j	c6030 <_ebss+0xc22e8>
    3940:	6152                	.2byte	0x6152
    3942:	6320                	.2byte	0x6320
    3944:	69746e6f          	jal	t3,4a7da <_ebss+0x46a92>
    3948:	756e                	.2byte	0x756e
    394a:	7028206f          	j	8604c <_ebss+0x82304>
    394e:	6c75                	.2byte	0x6c75
    3950:	63206173          	.4byte	0x63206173
    3954:	6175                	.2byte	0x6175
    3956:	716c                	.2byte	0x716c
    3958:	6975                	.2byte	0x6975
    395a:	7265                	.2byte	0x7265
    395c:	7420                	.2byte	0x7420
    395e:	6365                	.2byte	0x6365
    3960:	616c                	.2byte	0x616c
    3962:	7020                	.2byte	0x7020
    3964:	7261                	.2byte	0x7261
    3966:	2061                	.2byte	0x2061
    3968:	6f76                	.2byte	0x6f76
    396a:	766c                	.2byte	0x766c
    396c:	7265                	.2byte	0x7265
    396e:	6120                	.2byte	0x6120
    3970:	206c                	.2byte	0x206c
    3972:	656d                	.2byte	0x656d
    3974:	756e                	.2byte	0x756e
    3976:	0a29                	.2byte	0xa29
    3978:	0000                	.2byte	0x0
    397a:	0000                	.2byte	0x0
    397c:	477c                	.2byte	0x477c
    397e:	7572                	.2byte	0x7572
    3980:	6f70                	.2byte	0x6f70
    3982:	3120                	.2byte	0x3120
    3984:	542c                	.2byte	0x542c
    3986:	253d                	.2byte	0x253d
    3988:	2e642563          	.4byte	0x2e642563
    398c:	3025                	.2byte	0x3025
    398e:	6432                	.2byte	0x6432
    3990:	3d482c43          	.4byte	0x3d482c43
    3994:	3225                	.2byte	0x3225
    3996:	2e64                	.2byte	0x2e64
    3998:	3025                	.2byte	0x3025
    399a:	25256433          	.4byte	0x25256433
    399e:	502c                	.2byte	0x502c
    39a0:	253d                	.2byte	0x253d
    39a2:	2064                	.2byte	0x2064
    39a4:	6150                	.2byte	0x6150
    39a6:	4c2c                	.2byte	0x4c2c
    39a8:	5441                	.2byte	0x5441
    39aa:	203d                	.2byte	0x203d
    39ac:	3125                	.2byte	0x3125
    39ae:	6430                	.2byte	0x6430
    39b0:	4c2c                	.2byte	0x4c2c
    39b2:	203d4e4f          	.4byte	0x203d4e4f
    39b6:	3125                	.2byte	0x3125
    39b8:	6430                	.2byte	0x6430
    39ba:	0000                	.2byte	0x0
    39bc:	7372                	.2byte	0x7372
    39be:	25206973          	.4byte	0x25206973
    39c2:	6434                	.2byte	0x6434
    39c4:	202c                	.2byte	0x202c
    39c6:	20726e73          	.4byte	0x20726e73
    39ca:	3425                	.2byte	0x3425
    39cc:	2064                	.2byte	0x2064
    39ce:	25202323          	sw	s2,582(zero) # 246 <irq6_handler+0x2e>
    39d2:	7535                	.2byte	0x7535
    39d4:	2520                	.2byte	0x2520
    39d6:	00000a73          	.4byte	0xa73
    39da:	0000                	.2byte	0x0
    39dc:	454d                	.2byte	0x454d
    39de:	4944                	.2byte	0x4944
    39e0:	4144                	.2byte	0x4144
    39e2:	45442053          	.4byte	0x45442053
    39e6:	5020                	.2byte	0x5020
    39e8:	4552                	.2byte	0x4552
    39ea:	4e4f4953          	.4byte	0x4e4f4953
    39ee:	202c                	.2byte	0x202c
    39f0:	5548                	.2byte	0x5548
    39f2:	454d                	.2byte	0x454d
    39f4:	4144                	.2byte	0x4144
    39f6:	2044                	.2byte	0x2044
    39f8:	2059                	.2byte	0x2059
    39fa:	4554                	.2byte	0x4554
    39fc:	504d                	.2byte	0x504d
    39fe:	5245                	.2byte	0x5245
    3a00:	5441                	.2byte	0x5441
    3a02:	5255                	.2byte	0x5255
    3a04:	0a41                	.2byte	0xa41
    3a06:	0000                	.2byte	0x0
    3a08:	2d2d                	.2byte	0x2d2d
    3a0a:	2d2d                	.2byte	0x2d2d
    3a0c:	2d2d                	.2byte	0x2d2d
    3a0e:	2d2d                	.2byte	0x2d2d
    3a10:	2d2d                	.2byte	0x2d2d
    3a12:	2d2d                	.2byte	0x2d2d
    3a14:	2d2d                	.2byte	0x2d2d
    3a16:	2d2d                	.2byte	0x2d2d
    3a18:	2d2d                	.2byte	0x2d2d
    3a1a:	2d2d                	.2byte	0x2d2d
    3a1c:	2d2d                	.2byte	0x2d2d
    3a1e:	2d2d                	.2byte	0x2d2d
    3a20:	2d2d                	.2byte	0x2d2d
    3a22:	2d2d                	.2byte	0x2d2d
    3a24:	2d2d                	.2byte	0x2d2d
    3a26:	2d2d                	.2byte	0x2d2d
    3a28:	2d2d                	.2byte	0x2d2d
    3a2a:	2d2d                	.2byte	0x2d2d
    3a2c:	2d2d                	.2byte	0x2d2d
    3a2e:	2d2d                	.2byte	0x2d2d
    3a30:	2d2d                	.2byte	0x2d2d
    3a32:	2d2d                	.2byte	0x2d2d
    3a34:	2d2d                	.2byte	0x2d2d
    3a36:	000a                	.2byte	0xa
    3a38:	4c20                	.2byte	0x4c20
    3a3a:	2061                	.2byte	0x2061
    3a3c:	6574                	.2byte	0x6574
    3a3e:	706d                	.2byte	0x706d
    3a40:	7265                	.2byte	0x7265
    3a42:	7461                	.2byte	0x7461
    3a44:	7275                	.2byte	0x7275
    3a46:	2061                	.2byte	0x2061
    3a48:	6572                	.2byte	0x6572
    3a4a:	74736967          	.4byte	0x74736967
    3a4e:	6172                	.2byte	0x6172
    3a50:	6164                	.2byte	0x6164
    3a52:	6520                	.2byte	0x6520
    3a54:	00203a73          	.4byte	0x203a73
    3a58:	3025                	.2byte	0x3025
    3a5a:	6432                	.2byte	0x6432
    3a5c:	252e                	.2byte	0x252e
    3a5e:	2564                	.2byte	0x2564
    3a60:	00004363          	bltz	zero,3a66 <main+0x108e>
    3a64:	200a                	.2byte	0x200a
    3a66:	614c                	.2byte	0x614c
    3a68:	7020                	.2byte	0x7020
    3a6a:	6572                	.2byte	0x6572
    3a6c:	6e6f6973          	.4byte	0x6e6f6973
    3a70:	7220                	.2byte	0x7220
    3a72:	6765                	.2byte	0x6765
    3a74:	7369                	.2byte	0x7369
    3a76:	7274                	.2byte	0x7274
    3a78:	6461                	.2byte	0x6461
    3a7a:	2061                	.2byte	0x2061
    3a7c:	7365                	.2byte	0x7365
    3a7e:	203a                	.2byte	0x203a
    3a80:	0000                	.2byte	0x0
    3a82:	0000                	.2byte	0x0
    3a84:	6425                	.2byte	0x6425
    3a86:	5020                	.2byte	0x5020
    3a88:	7361                	.2byte	0x7361
    3a8a:	656c6163          	bltu	s8,s6,40cc <_ebss+0x384>
    3a8e:	200a0073          	.4byte	0x200a0073
    3a92:	614c                	.2byte	0x614c
    3a94:	6820                	.2byte	0x6820
    3a96:	6d75                	.2byte	0x6d75
    3a98:	6465                	.2byte	0x6465
    3a9a:	6461                	.2byte	0x6461
    3a9c:	7220                	.2byte	0x7220
    3a9e:	6765                	.2byte	0x6765
    3aa0:	7369                	.2byte	0x7369
    3aa2:	7274                	.2byte	0x7274
    3aa4:	6461                	.2byte	0x6461
    3aa6:	2061                	.2byte	0x2061
    3aa8:	7365                	.2byte	0x7365
    3aaa:	203a                	.2byte	0x203a
    3aac:	0000                	.2byte	0x0
    3aae:	0000                	.2byte	0x0
    3ab0:	3025                	.2byte	0x3025
    3ab2:	6432                	.2byte	0x6432
    3ab4:	252e                	.2byte	0x252e
    3ab6:	3330                	.2byte	0x3330
    3ab8:	2564                	.2byte	0x2564
    3aba:	0a0a0063          	beqz	s4,3b5a <main+0x1182>
    3abe:	0000                	.2byte	0x0
    3ac0:	654c                	.2byte	0x654c
    3ac2:	72757463          	bgeu	a0,t2,41ea <_ebss+0x4a2>
    3ac6:	2061                	.2byte	0x2061
    3ac8:	59325047          	.4byte	0x59325047
    3acc:	3031                	.2byte	0x3031
    3ace:	3031                	.2byte	0x3031
    3ad0:	4120                	.2byte	0x4120
    3ad2:	4344                	.2byte	0x4344
    3ad4:	2820                	.2byte	0x2820
    3ad6:	6176                	.2byte	0x6176
    3ad8:	6f6c                	.2byte	0x6f6c
    3ada:	6572                	.2byte	0x6572
    3adc:	6e652073          	.4byte	0x6e652073
    3ae0:	7274                	.2byte	0x7274
    3ae2:	2065                	.2byte	0x2065
    3ae4:	2d30                	.2byte	0x2d30
    3ae6:	3031                	.2byte	0x3031
    3ae8:	3332                	.2byte	0x3332
    3aea:	3a29                	.2byte	0x3a29
    3aec:	2520                	.2byte	0x2520
    3aee:	2064                	.2byte	0x2064
    3af0:	000a                	.2byte	0xa
    3af2:	0000                	.2byte	0x0
    3af4:	654c                	.2byte	0x654c
    3af6:	72757463          	bgeu	a0,t2,421e <_ebss+0x4d6>
    3afa:	2061                	.2byte	0x2061
    3afc:	4441                	.2byte	0x4441
    3afe:	434d2043          	.4byte	0x434d2043
    3b02:	3350                	.2byte	0x3350
    3b04:	3030                	.2byte	0x3030
    3b06:	3a34                	.2byte	0x3a34
    3b08:	430a                	.2byte	0x430a
    3b0a:	3048                	.2byte	0x3048
    3b0c:	253d                	.2byte	0x253d
    3b0e:	0a64                	.2byte	0xa64
    3b10:	3d314843          	.4byte	0x3d314843
    3b14:	6425                	.2byte	0x6425
    3b16:	430a                	.2byte	0x430a
    3b18:	3248                	.2byte	0x3248
    3b1a:	253d                	.2byte	0x253d
    3b1c:	0a64                	.2byte	0xa64
    3b1e:	3d334843          	.4byte	0x3d334843
    3b22:	6425                	.2byte	0x6425
    3b24:	000a                	.2byte	0xa
    3b26:	0000                	.2byte	0x0
    3b28:	2d0a                	.2byte	0x2d0a
    3b2a:	2d2d                	.2byte	0x2d2d
    3b2c:	2d2d                	.2byte	0x2d2d
    3b2e:	202d                	.2byte	0x202d
    3b30:	4544                	.2byte	0x4544
    3b32:	5542                	.2byte	0x5542
    3b34:	45532047          	.4byte	0x45532047
    3b38:	534e                	.2byte	0x534e
    3b3a:	5345524f          	.4byte	0x5345524f
    3b3e:	2d20                	.2byte	0x2d20
    3b40:	2d2d                	.2byte	0x2d2d
    3b42:	2d2d                	.2byte	0x2d2d
    3b44:	0a2d                	.2byte	0xa2d
    3b46:	0000                	.2byte	0x0
    3b48:	4d42                	.2byte	0x4d42
    3b4a:	3645                	.2byte	0x3645
    3b4c:	3038                	.2byte	0x3038
    3b4e:	5420                	.2byte	0x5420
    3b50:	253d                	.2byte	0x253d
    3b52:	2e642563          	.4byte	0x2e642563
    3b56:	3025                	.2byte	0x3025
    3b58:	6432                	.2byte	0x6432
    3b5a:	50202c43          	.4byte	0x50202c43
    3b5e:	253d                	.2byte	0x253d
    3b60:	2064                	.2byte	0x2064
    3b62:	6150                	.2byte	0x6150
    3b64:	202c                	.2byte	0x202c
    3b66:	3d48                	.2byte	0x3d48
    3b68:	3025                	.2byte	0x3025
    3b6a:	6432                	.2byte	0x6432
    3b6c:	252e                	.2byte	0x252e
    3b6e:	3330                	.2byte	0x3330
    3b70:	2064                	.2byte	0x2064
    3b72:	2525                	.2byte	0x2525
    3b74:	000a                	.2byte	0xa
    3b76:	0000                	.2byte	0x0
    3b78:	4441                	.2byte	0x4441
    3b7a:	48432043          	.4byte	0x48432043
    3b7e:	3d30                	.2byte	0x3d30
    3b80:	6425                	.2byte	0x6425
    3b82:	4320                	.2byte	0x4320
    3b84:	3148                	.2byte	0x3148
    3b86:	253d                	.2byte	0x253d
    3b88:	2064                	.2byte	0x2064
    3b8a:	3d324843          	.4byte	0x3d324843
    3b8e:	6425                	.2byte	0x6425
    3b90:	4320                	.2byte	0x4320
    3b92:	3348                	.2byte	0x3348
    3b94:	253d                	.2byte	0x253d
    3b96:	0a64                	.2byte	0xa64
    3b98:	0000                	.2byte	0x0
    3b9a:	0000                	.2byte	0x0
    3b9c:	514d                	.2byte	0x514d
    3b9e:	2039                	.2byte	0x2039
    3ba0:	253d4f43          	.4byte	0x253d4f43
    3ba4:	2064                	.2byte	0x2064
    3ba6:	7070                	.2byte	0x7070
    3ba8:	2c6d                	.2byte	0x2c6d
    3baa:	4320                	.2byte	0x4320
    3bac:	3448                	.2byte	0x3448
    3bae:	253d                	.2byte	0x253d
    3bb0:	2064                	.2byte	0x2064
    3bb2:	7070                	.2byte	0x7070
    3bb4:	0a6d                	.2byte	0xa6d
    3bb6:	0000                	.2byte	0x0
    3bb8:	59325047          	.4byte	0x59325047
    3bbc:	3031                	.2byte	0x3031
    3bbe:	3031                	.2byte	0x3031
    3bc0:	7220                	.2byte	0x7220
    3bc2:	7761                	.2byte	0x7761
    3bc4:	253d                	.2byte	0x253d
    3bc6:	0a64                	.2byte	0xa64
    3bc8:	0000                	.2byte	0x0
    3bca:	0000                	.2byte	0x0
    3bcc:	2d2d                	.2byte	0x2d2d
    3bce:	2d2d                	.2byte	0x2d2d
    3bd0:	2d2d                	.2byte	0x2d2d
    3bd2:	2d2d                	.2byte	0x2d2d
    3bd4:	2d2d                	.2byte	0x2d2d
    3bd6:	2d2d                	.2byte	0x2d2d
    3bd8:	2d2d                	.2byte	0x2d2d
    3bda:	2d2d                	.2byte	0x2d2d
    3bdc:	2d2d                	.2byte	0x2d2d
    3bde:	2d2d                	.2byte	0x2d2d
    3be0:	2d2d                	.2byte	0x2d2d
    3be2:	2d2d                	.2byte	0x2d2d
    3be4:	2d2d                	.2byte	0x2d2d
    3be6:	2d2d                	.2byte	0x2d2d
    3be8:	000a                	.2byte	0xa
    3bea:	0000                	.2byte	0x0
    3bec:	2d2d                	.2byte	0x2d2d
    3bee:	2d2d                	.2byte	0x2d2d
    3bf0:	4d20                	.2byte	0x4d20
    3bf2:	3951                	.2byte	0x3951
    3bf4:	2d20                	.2byte	0x2d20
    3bf6:	2d2d                	.2byte	0x2d2d
    3bf8:	0a2d                	.2byte	0xa2d
    3bfa:	203a4f43          	.4byte	0x203a4f43
    3bfe:	6425                	.2byte	0x6425
    3c00:	7020                	.2byte	0x7020
    3c02:	6d70                	.2byte	0x6d70
    3c04:	430a                	.2byte	0x430a
    3c06:	3448                	.2byte	0x3448
    3c08:	203a                	.2byte	0x203a
    3c0a:	6425                	.2byte	0x6425
    3c0c:	7020                	.2byte	0x7020
    3c0e:	6d70                	.2byte	0x6d70
    3c10:	000a                	.2byte	0xa
