
code.elf:     file format elf32-littleriscv


Disassembly of section .text:

00000000 <reset_vec>:
   0:	0040006f          	j	4 <start>

00000004 <start>:
   4:	e0000537          	lui	a0,0xe0000
   8:	02050513          	addi	a0,a0,32 # e0000020 <_ebss+0xdfffe3f8>
   c:	00700593          	li	a1,7
  10:	00b52223          	sw	a1,4(a0)
  14:	00000597          	auipc	a1,0x0
  18:	04858593          	addi	a1,a1,72 # 5c <hello>

0000001c <send_loop>:
  1c:	00058603          	lb	a2,0(a1)
  20:	02060063          	beqz	a2,40 <end>
  24:	00c50023          	sb	a2,0(a0)
  28:	e00006b7          	lui	a3,0xe0000
  2c:	0e468693          	addi	a3,a3,228 # e00000e4 <_ebss+0xdfffe4bc>
  30:	0006a703          	lw	a4,0(a3)
  34:	00174713          	xori	a4,a4,1
  38:	00070663          	beqz	a4,44 <fullInt_ISR>
  3c:	fe1ff06f          	j	1c <send_loop>

00000040 <end>:
  40:	0000006f          	j	40 <end>

00000044 <fullInt_ISR>:
  44:	e00006b7          	lui	a3,0xe0000
  48:	0e468693          	addi	a3,a3,228 # e00000e4 <_ebss+0xdfffe4bc>
  4c:	0006a703          	lw	a4,0(a3)
  50:	00174713          	xori	a4,a4,1
  54:	fe0708e3          	beqz	a4,44 <fullInt_ISR>
  58:	30200073          	mret

0000005c <hello>:
  5c:	616c6f68          	.word	0x616c6f68
  60:	6e756d20          	.word	0x6e756d20
  64:	6f64                	.short	0x6f64
  66:	00                	.byte	0x00
  67:	00002137          	lui	sp,0x2
  6b:	00002517          	auipc	a0,0x2
  6f:	b9550513          	addi	a0,a0,-1131 # 1c00 <a.0>
  73:	00001597          	auipc	a1,0x1
  77:	c4958593          	addi	a1,a1,-951 # cbc <_etext>
  7b:	00002617          	auipc	a2,0x2
  7f:	b8960613          	addi	a2,a2,-1143 # 1c04 <udat>
  83:	00c55c63          	bge	a0,a2,9b <end_init_data>

00000087 <loop_init_data>:
  87:	0005a683          	lw	a3,0(a1)
  8b:	00d52023          	sw	a3,0(a0)
  8f:	00450513          	addi	a0,a0,4
  93:	00458593          	addi	a1,a1,4
  97:	fec548e3          	blt	a0,a2,87 <loop_init_data>

0000009b <end_init_data>:
  9b:	00002517          	auipc	a0,0x2
  9f:	b6950513          	addi	a0,a0,-1175 # 1c04 <udat>
  a3:	00002597          	auipc	a1,0x2
  a7:	b8558593          	addi	a1,a1,-1147 # 1c28 <_ebss>
  ab:	00b55863          	bge	a0,a1,bb <end_init_bss>

000000af <loop_init_bss>:
  af:	00052023          	sw	zero,0(a0)
  b3:	00450513          	addi	a0,a0,4
  b7:	feb54ce3          	blt	a0,a1,af <loop_init_bss>

000000bb <end_init_bss>:
  bb:	00001097          	auipc	ra,0x1
  bf:	879080e7          	jalr	-1927(ra) # 934 <main>

000000c3 <loop>:
  c3:	0000006f          	j	c3 <loop>

000000c7 <delay_loop>:
  c7:	fff50513          	addi	a0,a0,-1
  cb:	fe051ee3          	bnez	a0,c7 <delay_loop>
  cf:	00008067          	ret
	...

000000d4 <irq2_handler>:
  d4:	ff010113          	addi	sp,sp,-16 # 1ff0 <_ebss+0x3c8>
  d8:	00e12223          	sw	a4,4(sp)
  dc:	00002737          	lui	a4,0x2
  e0:	00d12423          	sw	a3,8(sp)
  e4:	c2474683          	lbu	a3,-988(a4) # 1c24 <wrix>
  e8:	00f12023          	sw	a5,0(sp)
  ec:	00c12623          	sw	a2,12(sp)
  f0:	00168793          	addi	a5,a3,1
  f4:	0ff7f793          	zext.b	a5,a5
  f8:	c2f70223          	sb	a5,-988(a4)
  fc:	e00007b7          	lui	a5,0xe0000
 100:	0007c603          	lbu	a2,0(a5) # e0000000 <_ebss+0xdfffe3d8>
 104:	000027b7          	lui	a5,0x2
 108:	c0478793          	addi	a5,a5,-1020 # 1c04 <udat>
 10c:	00d787b3          	add	a5,a5,a3
 110:	00c78023          	sb	a2,0(a5)
 114:	c2474783          	lbu	a5,-988(a4)
 118:	00c12603          	lw	a2,12(sp)
 11c:	00812683          	lw	a3,8(sp)
 120:	01f7f793          	andi	a5,a5,31
 124:	c2f70223          	sb	a5,-988(a4)
 128:	00412703          	lw	a4,4(sp)
 12c:	00012783          	lw	a5,0(sp)
 130:	01010113          	addi	sp,sp,16
 134:	30200073          	mret

00000138 <irq3_handler>:
 138:	ff410113          	addi	sp,sp,-12
 13c:	00e12223          	sw	a4,4(sp)
 140:	00002737          	lui	a4,0x2
 144:	00f12023          	sw	a5,0(sp)
 148:	c0074783          	lbu	a5,-1024(a4) # 1c00 <a.0>
 14c:	00d12423          	sw	a3,8(sp)
 150:	e00006b7          	lui	a3,0xe0000
 154:	00f68023          	sb	a5,0(a3) # e0000000 <_ebss+0xdfffe3d8>
 158:	00178793          	addi	a5,a5,1
 15c:	0ff7f693          	zext.b	a3,a5
 160:	01879793          	slli	a5,a5,0x18
 164:	4187d793          	srai	a5,a5,0x18
 168:	0007d463          	bgez	a5,170 <irq3_handler+0x38>
 16c:	02000693          	li	a3,32
 170:	c0d70023          	sb	a3,-1024(a4)
 174:	00012783          	lw	a5,0(sp)
 178:	00812683          	lw	a3,8(sp)
 17c:	00412703          	lw	a4,4(sp)
 180:	00c10113          	addi	sp,sp,12
 184:	30200073          	mret

00000188 <_putch>:
 188:	e0000737          	lui	a4,0xe0000
 18c:	00472783          	lw	a5,4(a4) # e0000004 <_ebss+0xdfffe3dc>
 190:	0027f793          	andi	a5,a5,2
 194:	fe078ce3          	beqz	a5,18c <_putch+0x4>
 198:	0ff57513          	zext.b	a0,a0
 19c:	00a70023          	sb	a0,0(a4)
 1a0:	00008067          	ret

000001a4 <printchar>:
 1a4:	00050793          	mv	a5,a0
 1a8:	00058513          	mv	a0,a1
 1ac:	00078e63          	beqz	a5,1c8 <printchar+0x24>
 1b0:	0007a703          	lw	a4,0(a5)
 1b4:	00b70023          	sb	a1,0(a4)
 1b8:	0007a703          	lw	a4,0(a5)
 1bc:	00170713          	addi	a4,a4,1
 1c0:	00e7a023          	sw	a4,0(a5)
 1c4:	00008067          	ret
 1c8:	fc1ff06f          	j	188 <_putch>

000001cc <prints>:
 1cc:	fe410113          	addi	sp,sp,-28
 1d0:	00912823          	sw	s1,16(sp)
 1d4:	00112c23          	sw	ra,24(sp)
 1d8:	00812a23          	sw	s0,20(sp)
 1dc:	00a12223          	sw	a0,4(sp)
 1e0:	00058493          	mv	s1,a1
 1e4:	02000793          	li	a5,32
 1e8:	02c05c63          	blez	a2,220 <prints+0x54>
 1ec:	00000793          	li	a5,0
 1f0:	0080006f          	j	1f8 <prints+0x2c>
 1f4:	00178793          	addi	a5,a5,1
 1f8:	00f48733          	add	a4,s1,a5
 1fc:	00074703          	lbu	a4,0(a4)
 200:	fe071ae3          	bnez	a4,1f4 <prints+0x28>
 204:	02c7da63          	bge	a5,a2,238 <prints+0x6c>
 208:	40f60633          	sub	a2,a2,a5
 20c:	02000713          	li	a4,32
 210:	0026f793          	andi	a5,a3,2
 214:	00e12023          	sw	a4,0(sp)
 218:	00078663          	beqz	a5,224 <prints+0x58>
 21c:	03000793          	li	a5,48
 220:	00f12023          	sw	a5,0(sp)
 224:	0016f693          	andi	a3,a3,1
 228:	00000793          	li	a5,0
 22c:	04069063          	bnez	a3,26c <prints+0xa0>
 230:	00060413          	mv	s0,a2
 234:	0240006f          	j	258 <prints+0x8c>
 238:	00000613          	li	a2,0
 23c:	fd1ff06f          	j	20c <prints+0x40>
 240:	00012583          	lw	a1,0(sp)
 244:	00412503          	lw	a0,4(sp)
 248:	00c12423          	sw	a2,8(sp)
 24c:	fff40413          	addi	s0,s0,-1
 250:	f55ff0ef          	jal	ra,1a4 <printchar>
 254:	00812603          	lw	a2,8(sp)
 258:	fe8044e3          	bgtz	s0,240 <prints+0x74>
 25c:	00060793          	mv	a5,a2
 260:	00065463          	bgez	a2,268 <prints+0x9c>
 264:	00000793          	li	a5,0
 268:	40f60633          	sub	a2,a2,a5
 26c:	00078413          	mv	s0,a5
 270:	0200006f          	j	290 <prints+0xc4>
 274:	00412503          	lw	a0,4(sp)
 278:	00c12623          	sw	a2,12(sp)
 27c:	00f12423          	sw	a5,8(sp)
 280:	f25ff0ef          	jal	ra,1a4 <printchar>
 284:	00812783          	lw	a5,8(sp)
 288:	00c12603          	lw	a2,12(sp)
 28c:	00140413          	addi	s0,s0,1
 290:	40f406b3          	sub	a3,s0,a5
 294:	00d486b3          	add	a3,s1,a3
 298:	0006c583          	lbu	a1,0(a3)
 29c:	fc059ce3          	bnez	a1,274 <prints+0xa8>
 2a0:	00060493          	mv	s1,a2
 2a4:	02904263          	bgtz	s1,2c8 <prints+0xfc>
 2a8:	00065463          	bgez	a2,2b0 <prints+0xe4>
 2ac:	00000613          	li	a2,0
 2b0:	01812083          	lw	ra,24(sp)
 2b4:	00860533          	add	a0,a2,s0
 2b8:	01412403          	lw	s0,20(sp)
 2bc:	01012483          	lw	s1,16(sp)
 2c0:	01c10113          	addi	sp,sp,28
 2c4:	00008067          	ret
 2c8:	00012583          	lw	a1,0(sp)
 2cc:	00412503          	lw	a0,4(sp)
 2d0:	00c12423          	sw	a2,8(sp)
 2d4:	fff48493          	addi	s1,s1,-1
 2d8:	ecdff0ef          	jal	ra,1a4 <printchar>
 2dc:	00812603          	lw	a2,8(sp)
 2e0:	fc5ff06f          	j	2a4 <prints+0xd8>

000002e4 <printi>:
 2e4:	fcc10113          	addi	sp,sp,-52
 2e8:	02812623          	sw	s0,44(sp)
 2ec:	00058313          	mv	t1,a1
 2f0:	02112823          	sw	ra,48(sp)
 2f4:	02912423          	sw	s1,40(sp)
 2f8:	00a12023          	sw	a0,0(sp)
 2fc:	00060593          	mv	a1,a2
 300:	00068413          	mv	s0,a3
 304:	00070613          	mv	a2,a4
 308:	00078693          	mv	a3,a5
 30c:	02031463          	bnez	t1,334 <printi+0x50>
 310:	03000793          	li	a5,48
 314:	01c10593          	addi	a1,sp,28
 318:	00f11e23          	sh	a5,28(sp)
 31c:	eb1ff0ef          	jal	ra,1cc <prints>
 320:	03012083          	lw	ra,48(sp)
 324:	02c12403          	lw	s0,44(sp)
 328:	02812483          	lw	s1,40(sp)
 32c:	03410113          	addi	sp,sp,52
 330:	00008067          	ret
 334:	00030793          	mv	a5,t1
 338:	00040a63          	beqz	s0,34c <printi+0x68>
 33c:	00a00713          	li	a4,10
 340:	0ee59263          	bne	a1,a4,424 <printi+0x140>
 344:	0e035063          	bgez	t1,424 <printi+0x140>
 348:	406007b3          	neg	a5,t1
 34c:	03412703          	lw	a4,52(sp)
 350:	020103a3          	sb	zero,39(sp)
 354:	02710313          	addi	t1,sp,39
 358:	fc670713          	addi	a4,a4,-58
 35c:	00e12223          	sw	a4,4(sp)
 360:	00078513          	mv	a0,a5
 364:	00d12c23          	sw	a3,24(sp)
 368:	00c12a23          	sw	a2,20(sp)
 36c:	00612823          	sw	t1,16(sp)
 370:	00b12623          	sw	a1,12(sp)
 374:	00f12423          	sw	a5,8(sp)
 378:	558000ef          	jal	ra,8d0 <__umodsi3>
 37c:	00900713          	li	a4,9
 380:	00812783          	lw	a5,8(sp)
 384:	00c12583          	lw	a1,12(sp)
 388:	01012303          	lw	t1,16(sp)
 38c:	01412603          	lw	a2,20(sp)
 390:	01812683          	lw	a3,24(sp)
 394:	00a77663          	bgeu	a4,a0,3a0 <printi+0xbc>
 398:	00412703          	lw	a4,4(sp)
 39c:	00e50533          	add	a0,a0,a4
 3a0:	03050513          	addi	a0,a0,48
 3a4:	fea30fa3          	sb	a0,-1(t1)
 3a8:	00078513          	mv	a0,a5
 3ac:	00d12c23          	sw	a3,24(sp)
 3b0:	00c12a23          	sw	a2,20(sp)
 3b4:	fff30493          	addi	s1,t1,-1
 3b8:	00612823          	sw	t1,16(sp)
 3bc:	00b12623          	sw	a1,12(sp)
 3c0:	00f12423          	sw	a5,8(sp)
 3c4:	4c4000ef          	jal	ra,888 <__hidden___udivsi3>
 3c8:	00812783          	lw	a5,8(sp)
 3cc:	00c12583          	lw	a1,12(sp)
 3d0:	01012303          	lw	t1,16(sp)
 3d4:	01412603          	lw	a2,20(sp)
 3d8:	01812683          	lw	a3,24(sp)
 3dc:	04b7f863          	bgeu	a5,a1,42c <printi+0x148>
 3e0:	02040863          	beqz	s0,410 <printi+0x12c>
 3e4:	04060a63          	beqz	a2,438 <printi+0x154>
 3e8:	0026f793          	andi	a5,a3,2
 3ec:	04078663          	beqz	a5,438 <printi+0x154>
 3f0:	00012503          	lw	a0,0(sp)
 3f4:	02d00593          	li	a1,45
 3f8:	00d12423          	sw	a3,8(sp)
 3fc:	00c12223          	sw	a2,4(sp)
 400:	da5ff0ef          	jal	ra,1a4 <printchar>
 404:	00412603          	lw	a2,4(sp)
 408:	00812683          	lw	a3,8(sp)
 40c:	fff60613          	addi	a2,a2,-1
 410:	00012503          	lw	a0,0(sp)
 414:	00048593          	mv	a1,s1
 418:	db5ff0ef          	jal	ra,1cc <prints>
 41c:	00850533          	add	a0,a0,s0
 420:	f01ff06f          	j	320 <printi+0x3c>
 424:	00000413          	li	s0,0
 428:	f25ff06f          	j	34c <printi+0x68>
 42c:	00050793          	mv	a5,a0
 430:	00048313          	mv	t1,s1
 434:	f2dff06f          	j	360 <printi+0x7c>
 438:	02d00793          	li	a5,45
 43c:	fef48fa3          	sb	a5,-1(s1)
 440:	00000413          	li	s0,0
 444:	ffe30493          	addi	s1,t1,-2
 448:	fc9ff06f          	j	410 <printi+0x12c>

0000044c <print>:
 44c:	fe010113          	addi	sp,sp,-32
 450:	00812c23          	sw	s0,24(sp)
 454:	00912a23          	sw	s1,20(sp)
 458:	00112e23          	sw	ra,28(sp)
 45c:	00a12223          	sw	a0,4(sp)
 460:	00058313          	mv	t1,a1
 464:	00060413          	mv	s0,a2
 468:	00000493          	li	s1,0
 46c:	00034783          	lbu	a5,0(t1)
 470:	02079663          	bnez	a5,49c <print+0x50>
 474:	00412783          	lw	a5,4(sp)
 478:	00078663          	beqz	a5,484 <print+0x38>
 47c:	0007a783          	lw	a5,0(a5)
 480:	00078023          	sb	zero,0(a5)
 484:	01c12083          	lw	ra,28(sp)
 488:	01812403          	lw	s0,24(sp)
 48c:	00048513          	mv	a0,s1
 490:	01412483          	lw	s1,20(sp)
 494:	02010113          	addi	sp,sp,32
 498:	00008067          	ret
 49c:	02500713          	li	a4,37
 4a0:	1ae79263          	bne	a5,a4,644 <print+0x1f8>
 4a4:	00134683          	lbu	a3,1(t1)
 4a8:	fc0686e3          	beqz	a3,474 <print+0x28>
 4ac:	00130713          	addi	a4,t1,1
 4b0:	18f68863          	beq	a3,a5,640 <print+0x1f4>
 4b4:	02d00613          	li	a2,45
 4b8:	00000793          	li	a5,0
 4bc:	00c69663          	bne	a3,a2,4c8 <print+0x7c>
 4c0:	00230713          	addi	a4,t1,2
 4c4:	00100793          	li	a5,1
 4c8:	00070313          	mv	t1,a4
 4cc:	03000713          	li	a4,48
 4d0:	00034683          	lbu	a3,0(t1)
 4d4:	00130613          	addi	a2,t1,1
 4d8:	04e68c63          	beq	a3,a4,530 <print+0xe4>
 4dc:	00000713          	li	a4,0
 4e0:	00900593          	li	a1,9
 4e4:	00034683          	lbu	a3,0(t1)
 4e8:	00130513          	addi	a0,t1,1
 4ec:	fd068613          	addi	a2,a3,-48
 4f0:	0ff67393          	zext.b	t2,a2
 4f4:	0475f463          	bgeu	a1,t2,53c <print+0xf0>
 4f8:	07300613          	li	a2,115
 4fc:	04c69c63          	bne	a3,a2,554 <print+0x108>
 500:	00042583          	lw	a1,0(s0)
 504:	00440393          	addi	t2,s0,4
 508:	00059663          	bnez	a1,514 <print+0xc8>
 50c:	000015b7          	lui	a1,0x1
 510:	ac058593          	addi	a1,a1,-1344 # ac0 <main+0x18c>
 514:	00612623          	sw	t1,12(sp)
 518:	00712423          	sw	t2,8(sp)
 51c:	00078693          	mv	a3,a5
 520:	00070613          	mv	a2,a4
 524:	00412503          	lw	a0,4(sp)
 528:	ca5ff0ef          	jal	ra,1cc <prints>
 52c:	0580006f          	j	584 <print+0x138>
 530:	0027e793          	ori	a5,a5,2
 534:	00060313          	mv	t1,a2
 538:	f99ff06f          	j	4d0 <print+0x84>
 53c:	00271693          	slli	a3,a4,0x2
 540:	00e686b3          	add	a3,a3,a4
 544:	00169693          	slli	a3,a3,0x1
 548:	00d60733          	add	a4,a2,a3
 54c:	00050313          	mv	t1,a0
 550:	f95ff06f          	j	4e4 <print+0x98>
 554:	06400613          	li	a2,100
 558:	04c69263          	bne	a3,a2,59c <print+0x150>
 55c:	06100693          	li	a3,97
 560:	00440393          	addi	t2,s0,4
 564:	00042583          	lw	a1,0(s0)
 568:	00612623          	sw	t1,12(sp)
 56c:	00d12023          	sw	a3,0(sp)
 570:	00712423          	sw	t2,8(sp)
 574:	00100693          	li	a3,1
 578:	00a00613          	li	a2,10
 57c:	00412503          	lw	a0,4(sp)
 580:	d65ff0ef          	jal	ra,2e4 <printi>
 584:	00812383          	lw	t2,8(sp)
 588:	00c12303          	lw	t1,12(sp)
 58c:	00a484b3          	add	s1,s1,a0
 590:	00038413          	mv	s0,t2
 594:	00130313          	addi	t1,t1,1
 598:	ed5ff06f          	j	46c <print+0x20>
 59c:	07800613          	li	a2,120
 5a0:	02c69463          	bne	a3,a2,5c8 <print+0x17c>
 5a4:	00042583          	lw	a1,0(s0)
 5a8:	00440393          	addi	t2,s0,4
 5ac:	00612623          	sw	t1,12(sp)
 5b0:	00712423          	sw	t2,8(sp)
 5b4:	06100693          	li	a3,97
 5b8:	00d12023          	sw	a3,0(sp)
 5bc:	01000613          	li	a2,16
 5c0:	00000693          	li	a3,0
 5c4:	fb9ff06f          	j	57c <print+0x130>
 5c8:	05800613          	li	a2,88
 5cc:	00c69e63          	bne	a3,a2,5e8 <print+0x19c>
 5d0:	00440393          	addi	t2,s0,4
 5d4:	00042583          	lw	a1,0(s0)
 5d8:	00612623          	sw	t1,12(sp)
 5dc:	00712423          	sw	t2,8(sp)
 5e0:	04100693          	li	a3,65
 5e4:	fd5ff06f          	j	5b8 <print+0x16c>
 5e8:	07500613          	li	a2,117
 5ec:	02c69263          	bne	a3,a2,610 <print+0x1c4>
 5f0:	06100693          	li	a3,97
 5f4:	00440393          	addi	t2,s0,4
 5f8:	00042583          	lw	a1,0(s0)
 5fc:	00612623          	sw	t1,12(sp)
 600:	00d12023          	sw	a3,0(sp)
 604:	00712423          	sw	t2,8(sp)
 608:	00000693          	li	a3,0
 60c:	f6dff06f          	j	578 <print+0x12c>
 610:	06300613          	li	a2,99
 614:	f8c690e3          	bne	a3,a2,594 <print+0x148>
 618:	00042683          	lw	a3,0(s0)
 61c:	00440393          	addi	t2,s0,4
 620:	00612623          	sw	t1,12(sp)
 624:	00d10823          	sb	a3,16(sp)
 628:	00712423          	sw	t2,8(sp)
 62c:	000108a3          	sb	zero,17(sp)
 630:	00078693          	mv	a3,a5
 634:	00070613          	mv	a2,a4
 638:	01010593          	addi	a1,sp,16
 63c:	ee9ff06f          	j	524 <print+0xd8>
 640:	00070313          	mv	t1,a4
 644:	00034583          	lbu	a1,0(t1)
 648:	00412503          	lw	a0,4(sp)
 64c:	00612423          	sw	t1,8(sp)
 650:	00148493          	addi	s1,s1,1
 654:	b51ff0ef          	jal	ra,1a4 <printchar>
 658:	00812303          	lw	t1,8(sp)
 65c:	f39ff06f          	j	594 <print+0x148>

00000660 <_puts>:
 660:	ff410113          	addi	sp,sp,-12
 664:	00812223          	sw	s0,4(sp)
 668:	00112423          	sw	ra,8(sp)
 66c:	00050413          	mv	s0,a0
 670:	00044503          	lbu	a0,0(s0)
 674:	00051a63          	bnez	a0,688 <_puts+0x28>
 678:	00812083          	lw	ra,8(sp)
 67c:	00412403          	lw	s0,4(sp)
 680:	00c10113          	addi	sp,sp,12
 684:	00008067          	ret
 688:	00140413          	addi	s0,s0,1
 68c:	afdff0ef          	jal	ra,188 <_putch>
 690:	fe1ff06f          	j	670 <_puts+0x10>

00000694 <_printf>:
 694:	fdc10113          	addi	sp,sp,-36
 698:	00b12823          	sw	a1,16(sp)
 69c:	00c12a23          	sw	a2,20(sp)
 6a0:	00050593          	mv	a1,a0
 6a4:	01010613          	addi	a2,sp,16
 6a8:	00000513          	li	a0,0
 6ac:	00112623          	sw	ra,12(sp)
 6b0:	00d12c23          	sw	a3,24(sp)
 6b4:	00e12e23          	sw	a4,28(sp)
 6b8:	02f12023          	sw	a5,32(sp)
 6bc:	00c12023          	sw	a2,0(sp)
 6c0:	d8dff0ef          	jal	ra,44c <print>
 6c4:	00c12083          	lw	ra,12(sp)
 6c8:	02410113          	addi	sp,sp,36
 6cc:	00008067          	ret

000006d0 <_sprintf>:
 6d0:	fdc10113          	addi	sp,sp,-36
 6d4:	00a12023          	sw	a0,0(sp)
 6d8:	00c12a23          	sw	a2,20(sp)
 6dc:	00010513          	mv	a0,sp
 6e0:	01410613          	addi	a2,sp,20
 6e4:	00112823          	sw	ra,16(sp)
 6e8:	00d12c23          	sw	a3,24(sp)
 6ec:	00e12e23          	sw	a4,28(sp)
 6f0:	02f12023          	sw	a5,32(sp)
 6f4:	00c12223          	sw	a2,4(sp)
 6f8:	d55ff0ef          	jal	ra,44c <print>
 6fc:	01012083          	lw	ra,16(sp)
 700:	02410113          	addi	sp,sp,36
 704:	00008067          	ret

00000708 <_getch>:
 708:	00002737          	lui	a4,0x2
 70c:	00002637          	lui	a2,0x2
 710:	c2574683          	lbu	a3,-987(a4) # 1c25 <rdix>
 714:	c2464783          	lbu	a5,-988(a2) # 1c24 <wrix>
 718:	fef68ce3          	beq	a3,a5,710 <_getch+0x8>
 71c:	c2574683          	lbu	a3,-987(a4)
 720:	00168793          	addi	a5,a3,1
 724:	0ff7f793          	zext.b	a5,a5
 728:	c2f702a3          	sb	a5,-987(a4)
 72c:	000027b7          	lui	a5,0x2
 730:	c0478793          	addi	a5,a5,-1020 # 1c04 <udat>
 734:	00d787b3          	add	a5,a5,a3
 738:	c2574683          	lbu	a3,-987(a4)
 73c:	0007c503          	lbu	a0,0(a5)
 740:	01f6f693          	andi	a3,a3,31
 744:	c2d702a3          	sb	a3,-987(a4)
 748:	00008067          	ret

0000074c <haschar>:
 74c:	000027b7          	lui	a5,0x2
 750:	c247c503          	lbu	a0,-988(a5) # 1c24 <wrix>
 754:	000027b7          	lui	a5,0x2
 758:	c257c783          	lbu	a5,-987(a5) # 1c25 <rdix>
 75c:	40f50533          	sub	a0,a0,a5
 760:	0ff57513          	zext.b	a0,a0
 764:	00008067          	ret

00000768 <getMEPC>:
 768:	34101573          	.word	0x34101573
 76c:	34151073          	.word	0x34151073
 770:	00008067          	ret

00000774 <irq1_handler>:
 774:	fd810113          	addi	sp,sp,-40
 778:	02112223          	sw	ra,36(sp)
 77c:	02512023          	sw	t0,32(sp)
 780:	00612e23          	sw	t1,28(sp)
 784:	00712c23          	sw	t2,24(sp)
 788:	00b12823          	sw	a1,16(sp)
 78c:	00c12623          	sw	a2,12(sp)
 790:	00d12423          	sw	a3,8(sp)
 794:	00e12223          	sw	a4,4(sp)
 798:	00f12023          	sw	a5,0(sp)
 79c:	00a12a23          	sw	a0,20(sp)
 7a0:	fc9ff0ef          	jal	ra,768 <getMEPC>
 7a4:	00050593          	mv	a1,a0
 7a8:	00001537          	lui	a0,0x1
 7ac:	ac850513          	addi	a0,a0,-1336 # ac8 <main+0x194>
 7b0:	ee5ff0ef          	jal	ra,694 <_printf>
 7b4:	02412083          	lw	ra,36(sp)
 7b8:	02012283          	lw	t0,32(sp)
 7bc:	01c12303          	lw	t1,28(sp)
 7c0:	01812383          	lw	t2,24(sp)
 7c4:	01412503          	lw	a0,20(sp)
 7c8:	01012583          	lw	a1,16(sp)
 7cc:	00c12603          	lw	a2,12(sp)
 7d0:	00812683          	lw	a3,8(sp)
 7d4:	00412703          	lw	a4,4(sp)
 7d8:	00012783          	lw	a5,0(sp)
 7dc:	02810113          	addi	sp,sp,40
 7e0:	30200073          	mret

000007e4 <spixfer>:
 7e4:	e00007b7          	lui	a5,0xe0000
 7e8:	02a7a023          	sw	a0,32(a5) # e0000020 <_ebss+0xdfffe3f8>
 7ec:	e0000737          	lui	a4,0xe0000
 7f0:	02472783          	lw	a5,36(a4) # e0000024 <_ebss+0xdfffe3fc>
 7f4:	0017f793          	andi	a5,a5,1
 7f8:	fe079ce3          	bnez	a5,7f0 <spixfer+0xc>
 7fc:	02072503          	lw	a0,32(a4)
 800:	00008067          	ret

00000804 <getw>:
 804:	ff410113          	addi	sp,sp,-12
 808:	00112423          	sw	ra,8(sp)
 80c:	00812223          	sw	s0,4(sp)
 810:	00912023          	sw	s1,0(sp)
 814:	ef5ff0ef          	jal	ra,708 <_getch>
 818:	00050493          	mv	s1,a0
 81c:	eedff0ef          	jal	ra,708 <_getch>
 820:	00050413          	mv	s0,a0
 824:	ee5ff0ef          	jal	ra,708 <_getch>
 828:	01051513          	slli	a0,a0,0x10
 82c:	00841413          	slli	s0,s0,0x8
 830:	00a46433          	or	s0,s0,a0
 834:	ed5ff0ef          	jal	ra,708 <_getch>
 838:	00946433          	or	s0,s0,s1
 83c:	01851513          	slli	a0,a0,0x18
 840:	00812083          	lw	ra,8(sp)
 844:	00856533          	or	a0,a0,s0
 848:	00412403          	lw	s0,4(sp)
 84c:	00012483          	lw	s1,0(sp)
 850:	00c10113          	addi	sp,sp,12
 854:	00008067          	ret

00000858 <_memcpy>:
 858:	02060263          	beqz	a2,87c <_memcpy+0x24>
 85c:	00000793          	li	a5,0
 860:	00f58733          	add	a4,a1,a5
 864:	00074683          	lbu	a3,0(a4)
 868:	00f50733          	add	a4,a0,a5
 86c:	00178793          	addi	a5,a5,1
 870:	00d70023          	sb	a3,0(a4)
 874:	fef616e3          	bne	a2,a5,860 <_memcpy+0x8>
 878:	00c50533          	add	a0,a0,a2
 87c:	00008067          	ret

00000880 <__divsi3>:
 880:	06054063          	bltz	a0,8e0 <__umodsi3+0x10>
 884:	0605c663          	bltz	a1,8f0 <__umodsi3+0x20>

00000888 <__hidden___udivsi3>:
 888:	00058613          	mv	a2,a1
 88c:	00050593          	mv	a1,a0
 890:	fff00513          	li	a0,-1
 894:	02060c63          	beqz	a2,8cc <__hidden___udivsi3+0x44>
 898:	00100693          	li	a3,1
 89c:	00b67a63          	bgeu	a2,a1,8b0 <__hidden___udivsi3+0x28>
 8a0:	00c05863          	blez	a2,8b0 <__hidden___udivsi3+0x28>
 8a4:	00161613          	slli	a2,a2,0x1
 8a8:	00169693          	slli	a3,a3,0x1
 8ac:	feb66ae3          	bltu	a2,a1,8a0 <__hidden___udivsi3+0x18>
 8b0:	00000513          	li	a0,0
 8b4:	00c5e663          	bltu	a1,a2,8c0 <__hidden___udivsi3+0x38>
 8b8:	40c585b3          	sub	a1,a1,a2
 8bc:	00d56533          	or	a0,a0,a3
 8c0:	0016d693          	srli	a3,a3,0x1
 8c4:	00165613          	srli	a2,a2,0x1
 8c8:	fe0696e3          	bnez	a3,8b4 <__hidden___udivsi3+0x2c>
 8cc:	00008067          	ret

000008d0 <__umodsi3>:
 8d0:	00008293          	mv	t0,ra
 8d4:	fb5ff0ef          	jal	ra,888 <__hidden___udivsi3>
 8d8:	00058513          	mv	a0,a1
 8dc:	00028067          	jr	t0
 8e0:	40a00533          	neg	a0,a0
 8e4:	00b04863          	bgtz	a1,8f4 <__umodsi3+0x24>
 8e8:	40b005b3          	neg	a1,a1
 8ec:	f9dff06f          	j	888 <__hidden___udivsi3>
 8f0:	40b005b3          	neg	a1,a1
 8f4:	00008293          	mv	t0,ra
 8f8:	f91ff0ef          	jal	ra,888 <__hidden___udivsi3>
 8fc:	40a00533          	neg	a0,a0
 900:	00028067          	jr	t0

00000904 <__modsi3>:
 904:	00008293          	mv	t0,ra
 908:	0005ca63          	bltz	a1,91c <__modsi3+0x18>
 90c:	00054c63          	bltz	a0,924 <__modsi3+0x20>
 910:	f79ff0ef          	jal	ra,888 <__hidden___udivsi3>
 914:	00058513          	mv	a0,a1
 918:	00028067          	jr	t0
 91c:	40b005b3          	neg	a1,a1
 920:	fe0558e3          	bgez	a0,910 <__modsi3+0xc>
 924:	40a00533          	neg	a0,a0
 928:	f61ff0ef          	jal	ra,888 <__hidden___udivsi3>
 92c:	40b00533          	neg	a0,a1
 930:	00028067          	jr	t0

00000934 <main>:
 934:	fe410113          	addi	sp,sp,-28
 938:	00812a23          	sw	s0,20(sp)
 93c:	00112c23          	sw	ra,24(sp)
 940:	e0000437          	lui	s0,0xe0000
 944:	00912823          	sw	s1,16(sp)
 948:	09b00793          	li	a5,155
 94c:	00092537          	lui	a0,0x92
 950:	00f42223          	sw	a5,4(s0) # e0000004 <_ebss+0xdfffe3dc>
 954:	7b650513          	addi	a0,a0,1974 # 927b6 <_ebss+0x90b8e>
 958:	0c7000e7          	jalr	199(zero) # 0 <reset_vec>
 95c:	00044783          	lbu	a5,0(s0)
 960:	77400793          	li	a5,1908
 964:	0ef42823          	sw	a5,240(s0)
 968:	0d400793          	li	a5,212
 96c:	0ef42a23          	sw	a5,244(s0)
 970:	13800793          	li	a5,312
 974:	0ef42c23          	sw	a5,248(s0)
 978:	00100793          	li	a5,1
 97c:	0ef42023          	sw	a5,224(s0)
 980:	00000073          	ecall
 984:	00100073          	ebreak
 988:	00001437          	lui	s0,0x1
 98c:	ad840513          	addi	a0,s0,-1320 # ad8 <main+0x1a4>
 990:	cd1ff0ef          	jal	ra,660 <_puts>
 994:	00001537          	lui	a0,0x1
 998:	c6450513          	addi	a0,a0,-924 # c64 <main+0x330>
 99c:	cc5ff0ef          	jal	ra,660 <_puts>
 9a0:	000014b7          	lui	s1,0x1
 9a4:	c7048513          	addi	a0,s1,-912 # c70 <main+0x33c>
 9a8:	cb9ff0ef          	jal	ra,660 <_puts>
 9ac:	d5dff0ef          	jal	ra,708 <_getch>
 9b0:	fdf50713          	addi	a4,a0,-33
 9b4:	0ff77713          	zext.b	a4,a4
 9b8:	05d00613          	li	a2,93
 9bc:	000016b7          	lui	a3,0x1
 9c0:	00e67863          	bgeu	a2,a4,9d0 <main+0x9c>
 9c4:	c8468513          	addi	a0,a3,-892 # c84 <main+0x350>
 9c8:	c99ff0ef          	jal	ra,660 <_puts>
 9cc:	fd9ff06f          	j	9a4 <main+0x70>
 9d0:	00a12023          	sw	a0,0(sp)
 9d4:	fb4ff0ef          	jal	ra,188 <_putch>
 9d8:	000016b7          	lui	a3,0x1
 9dc:	c8468513          	addi	a0,a3,-892 # c84 <main+0x350>
 9e0:	c81ff0ef          	jal	ra,660 <_puts>
 9e4:	00012783          	lw	a5,0(sp)
 9e8:	07100713          	li	a4,113
 9ec:	0ce78663          	beq	a5,a4,ab8 <main+0x184>
 9f0:	02f76a63          	bltu	a4,a5,a24 <main+0xf0>
 9f4:	03100713          	li	a4,49
 9f8:	0ae78c63          	beq	a5,a4,ab0 <main+0x17c>
 9fc:	03200713          	li	a4,50
 a00:	fae792e3          	bne	a5,a4,9a4 <main+0x70>
 a04:	e0000737          	lui	a4,0xe0000
 a08:	0e072783          	lw	a5,224(a4) # e00000e0 <_ebss+0xdfffe4b8>
 a0c:	00092537          	lui	a0,0x92
 a10:	7b650513          	addi	a0,a0,1974 # 927b6 <_ebss+0x90b8e>
 a14:	0027c793          	xori	a5,a5,2
 a18:	0ef72023          	sw	a5,224(a4)
 a1c:	0c7000e7          	jalr	199(zero) # 0 <reset_vec>
 a20:	f85ff06f          	j	9a4 <main+0x70>
 a24:	07800713          	li	a4,120
 a28:	f6e79ee3          	bne	a5,a4,9a4 <main+0x70>
 a2c:	00001537          	lui	a0,0x1
 a30:	c8850513          	addi	a0,a0,-888 # c88 <main+0x354>
 a34:	c2dff0ef          	jal	ra,660 <_puts>
 a38:	dcdff0ef          	jal	ra,804 <getw>
 a3c:	665677b7          	lui	a5,0x66567
 a40:	27078793          	addi	a5,a5,624 # 66567270 <_ebss+0x66565648>
 a44:	f6f510e3          	bne	a0,a5,9a4 <main+0x70>
 a48:	dbdff0ef          	jal	ra,804 <getw>
 a4c:	00a12223          	sw	a0,4(sp)
 a50:	db5ff0ef          	jal	ra,804 <getw>
 a54:	00a12023          	sw	a0,0(sp)
 a58:	dadff0ef          	jal	ra,804 <getw>
 a5c:	00012703          	lw	a4,0(sp)
 a60:	00412783          	lw	a5,4(sp)
 a64:	00050693          	mv	a3,a0
 a68:	02070c63          	beqz	a4,aa0 <main+0x16c>
 a6c:	00e78733          	add	a4,a5,a4
 a70:	00f12223          	sw	a5,4(sp)
 a74:	00178793          	addi	a5,a5,1
 a78:	00e12623          	sw	a4,12(sp)
 a7c:	00d12423          	sw	a3,8(sp)
 a80:	00f12023          	sw	a5,0(sp)
 a84:	c85ff0ef          	jal	ra,708 <_getch>
 a88:	00412603          	lw	a2,4(sp)
 a8c:	00012783          	lw	a5,0(sp)
 a90:	00c12703          	lw	a4,12(sp)
 a94:	00a60023          	sb	a0,0(a2)
 a98:	00812683          	lw	a3,8(sp)
 a9c:	fce79ae3          	bne	a5,a4,a70 <main+0x13c>
 aa0:	0ff00793          	li	a5,255
 aa4:	f0d7f0e3          	bgeu	a5,a3,9a4 <main+0x70>
 aa8:	000680e7          	jalr	a3
 aac:	ef9ff06f          	j	9a4 <main+0x70>
 ab0:	ad840513          	addi	a0,s0,-1320
 ab4:	f15ff06f          	j	9c8 <main+0x94>
 ab8:	00000067          	jr	zero # 0 <reset_vec>
 abc:	ee9ff06f          	j	9a4 <main+0x70>
 ac0:	6e28                	.2byte	0x6e28
 ac2:	6c75                	.2byte	0x6c75
 ac4:	296c                	.2byte	0x296c
 ac6:	0000                	.2byte	0x0
 ac8:	540a                	.2byte	0x540a
 aca:	4152                	.2byte	0x4152
 acc:	2050                	.2byte	0x2050
 ace:	7461                	.2byte	0x7461
 ad0:	3020                	.2byte	0x3020
 ad2:	2578                	.2byte	0x2578
 ad4:	0a78                	.2byte	0xa78
 ad6:	0000                	.2byte	0x0
 ad8:	0a0a                	.2byte	0xa0a
 ada:	380a                	.2byte	0x380a
 adc:	3838                	.2byte	0x3838
 ade:	2020                	.2byte	0x2020
 ae0:	2020                	.2byte	0x2020
 ae2:	2020                	.2byte	0x2020
 ae4:	2020                	.2byte	0x2020
 ae6:	2020                	.2byte	0x2020
 ae8:	2020                	.2byte	0x2020
 aea:	2020                	.2byte	0x2020
 aec:	2020                	.2byte	0x2020
 aee:	3838                	.2byte	0x3838
 af0:	3838                	.2byte	0x3838
 af2:	3838                	.2byte	0x3838
 af4:	6238                	.2byte	0x6238
 af6:	202e                	.2byte	0x202e
 af8:	3820                	.2byte	0x3820
 afa:	3838                	.2byte	0x3838
 afc:	2020                	.2byte	0x2020
 afe:	2020                	.2byte	0x2020
 b00:	3820                	.2byte	0x3820
 b02:	3838                	.2byte	0x3838
 b04:	380a                	.2byte	0x380a
 b06:	3838                	.2byte	0x3838
 b08:	2020                	.2byte	0x2020
 b0a:	2020                	.2byte	0x2020
 b0c:	2020                	.2byte	0x2020
 b0e:	2020                	.2byte	0x2020
 b10:	2020                	.2byte	0x2020
 b12:	2020                	.2byte	0x2020
 b14:	2020                	.2byte	0x2020
 b16:	2020                	.2byte	0x2020
 b18:	3838                	.2byte	0x3838
 b1a:	2038                	.2byte	0x2038
 b1c:	2020                	.2byte	0x2020
 b1e:	3859                	.2byte	0x3859
 b20:	6238                	.2byte	0x6238
 b22:	3820                	.2byte	0x3820
 b24:	3838                	.2byte	0x3838
 b26:	2020                	.2byte	0x2020
 b28:	2020                	.2byte	0x2020
 b2a:	3820                	.2byte	0x3820
 b2c:	3838                	.2byte	0x3838
 b2e:	380a                	.2byte	0x380a
 b30:	3838                	.2byte	0x3838
 b32:	2020                	.2byte	0x2020
 b34:	2020                	.2byte	0x2020
 b36:	2020                	.2byte	0x2020
 b38:	2020                	.2byte	0x2020
 b3a:	2020                	.2byte	0x2020
 b3c:	2020                	.2byte	0x2020
 b3e:	2020                	.2byte	0x2020
 b40:	2020                	.2byte	0x2020
 b42:	3838                	.2byte	0x3838
 b44:	2038                	.2byte	0x2038
 b46:	2020                	.2byte	0x2020
 b48:	3820                	.2byte	0x3820
 b4a:	3838                	.2byte	0x3838
 b4c:	3820                	.2byte	0x3820
 b4e:	3838                	.2byte	0x3838
 b50:	2020                	.2byte	0x2020
 b52:	2020                	.2byte	0x2020
 b54:	3820                	.2byte	0x3820
 b56:	3838                	.2byte	0x3838
 b58:	380a                	.2byte	0x380a
 b5a:	3838                	.2byte	0x3838
 b5c:	2020                	.2byte	0x2020
 b5e:	2020                	.2byte	0x2020
 b60:	2020                	.2byte	0x2020
 b62:	2020                	.2byte	0x2020
 b64:	3838                	.2byte	0x3838
 b66:	3838                	.2byte	0x3838
 b68:	2e62                	.2byte	0x2e62
 b6a:	2020                	.2byte	0x2020
 b6c:	3838                	.2byte	0x3838
 b6e:	2038                	.2byte	0x2038
 b70:	2020                	.2byte	0x2020
 b72:	3864                	.2byte	0x3864
 b74:	5038                	.2byte	0x5038
 b76:	5920                	.2byte	0x5920
 b78:	3838                	.2byte	0x3838
 b7a:	2062                	.2byte	0x2062
 b7c:	2020                	.2byte	0x2020
 b7e:	3864                	.2byte	0x3864
 b80:	5038                	.2byte	0x5038
 b82:	3820                	.2byte	0x3820
 b84:	3838                	.2byte	0x3838
 b86:	6238                	.2byte	0x6238
 b88:	0a2e                	.2byte	0xa2e
 b8a:	3838                	.2byte	0x3838
 b8c:	2038                	.2byte	0x2038
 b8e:	2020                	.2byte	0x2020
 b90:	2020                	.2byte	0x2020
 b92:	2020                	.2byte	0x2020
 b94:	2020                	.2byte	0x2020
 b96:	2020                	.2byte	0x2020
 b98:	62383827          	.4byte	0x62383827
 b9c:	3820                	.2byte	0x3820
 b9e:	3838                	.2byte	0x3838
 ba0:	3838                	.2byte	0x3838
 ba2:	3838                	.2byte	0x3838
 ba4:	2750                	.2byte	0x2750
 ba6:	2020                	.2byte	0x2020
 ba8:	5920                	.2byte	0x5920
 baa:	3838                	.2byte	0x3838
 bac:	2062                	.2byte	0x2062
 bae:	3864                	.2byte	0x3864
 bb0:	5038                	.2byte	0x5038
 bb2:	2020                	.2byte	0x2020
 bb4:	2020                	.2byte	0x2020
 bb6:	2720                	.2byte	0x2720
 bb8:	3838                	.2byte	0x3838
 bba:	0a62                	.2byte	0xa62
 bbc:	3838                	.2byte	0x3838
 bbe:	2038                	.2byte	0x2038
 bc0:	2020                	.2byte	0x2020
 bc2:	2020                	.2byte	0x2020
 bc4:	2020                	.2byte	0x2020
 bc6:	642e                	.2byte	0x642e
 bc8:	3838                	.2byte	0x3838
 bca:	3838                	.2byte	0x3838
 bcc:	3838                	.2byte	0x3838
 bce:	3820                	.2byte	0x3820
 bd0:	3838                	.2byte	0x3838
 bd2:	5420                	.2byte	0x5420
 bd4:	3838                	.2byte	0x3838
 bd6:	2062                	.2byte	0x2062
 bd8:	2020                	.2byte	0x2020
 bda:	2020                	.2byte	0x2020
 bdc:	3859                	.2byte	0x3859
 bde:	6f38                	.2byte	0x6f38
 be0:	3838                	.2byte	0x3838
 be2:	2050                	.2byte	0x2050
 be4:	2e20                	.2byte	0x2e20
 be6:	3864                	.2byte	0x3864
 be8:	3838                	.2byte	0x3838
 bea:	3838                	.2byte	0x3838
 bec:	0a38                	.2byte	0xa38
 bee:	3838                	.2byte	0x3838
 bf0:	3838                	.2byte	0x3838
 bf2:	3838                	.2byte	0x3838
 bf4:	3838                	.2byte	0x3838
 bf6:	2038                	.2byte	0x2038
 bf8:	3838                	.2byte	0x3838
 bfa:	2038                	.2byte	0x2038
 bfc:	3820                	.2byte	0x3820
 bfe:	3838                	.2byte	0x3838
 c00:	3820                	.2byte	0x3820
 c02:	3838                	.2byte	0x3838
 c04:	2020                	.2byte	0x2020
 c06:	3854                	.2byte	0x3854
 c08:	6238                	.2byte	0x6238
 c0a:	2020                	.2byte	0x2020
 c0c:	2020                	.2byte	0x2020
 c0e:	5920                	.2byte	0x5920
 c10:	3838                	.2byte	0x3838
 c12:	5038                	.2byte	0x5038
 c14:	2020                	.2byte	0x2020
 c16:	3820                	.2byte	0x3820
 c18:	3838                	.2byte	0x3838
 c1a:	2020                	.2byte	0x2020
 c1c:	3838                	.2byte	0x3838
 c1e:	0a38                	.2byte	0xa38
 c20:	3838                	.2byte	0x3838
 c22:	3838                	.2byte	0x3838
 c24:	3838                	.2byte	0x3838
 c26:	3838                	.2byte	0x3838
 c28:	2038                	.2byte	0x2038
 c2a:	38385927          	.4byte	0x38385927
 c2e:	3838                	.2byte	0x3838
 c30:	3838                	.2byte	0x3838
 c32:	3820                	.2byte	0x3820
 c34:	3838                	.2byte	0x3838
 c36:	2020                	.2byte	0x2020
 c38:	5420                	.2byte	0x5420
 c3a:	3838                	.2byte	0x3838
 c3c:	2062                	.2byte	0x2062
 c3e:	2020                	.2byte	0x2020
 c40:	2020                	.2byte	0x2020
 c42:	3859                	.2byte	0x3859
 c44:	2050                	.2byte	0x2050
 c46:	2020                	.2byte	0x2020
 c48:	2720                	.2byte	0x2720
 c4a:	3859                	.2byte	0x3859
 c4c:	3838                	.2byte	0x3838
 c4e:	3838                	.2byte	0x3838
 c50:	0a38                	.2byte	0xa38
 c52:	490a                	.2byte	0x490a
 c54:	7374                	.2byte	0x7374
 c56:	4120                	.2byte	0x4120
 c58:	696c                	.2byte	0x696c
 c5a:	6576                	.2byte	0x6576
 c5c:	3a20                	.2byte	0x3a20
 c5e:	292d                	.2byte	0x292d
 c60:	0a0a                	.2byte	0xa0a
 c62:	0000                	.2byte	0x0
 c64:	6f48                	.2byte	0x6f48
 c66:	616c                	.2byte	0x616c
 c68:	6d20                	.2byte	0x6d20
 c6a:	6e75                	.2byte	0x6e75
 c6c:	6f64                	.2byte	0x6f64
 c6e:	000a                	.2byte	0xa
 c70:	6d6d6f43          	.4byte	0x6d6d6f43
 c74:	6e61                	.2byte	0x6e61
 c76:	2064                	.2byte	0x2064
 c78:	3332315b          	.4byte	0x3332315b
 c7c:	7864                	.2byte	0x7864
 c7e:	3e5d                	.2byte	0x3e5d
 c80:	0020                	.2byte	0x20
 c82:	0000                	.2byte	0x0
 c84:	000a                	.2byte	0xa
 c86:	0000                	.2byte	0x0
 c88:	7055                	.2byte	0x7055
 c8a:	6f6c                	.2byte	0x6f6c
 c8c:	6461                	.2byte	0x6461
 c8e:	4120                	.2byte	0x4120
 c90:	5050                	.2byte	0x5050
 c92:	6620                	.2byte	0x6620
 c94:	6f72                	.2byte	0x6f72
 c96:	206d                	.2byte	0x206d
 c98:	69726573          	.4byte	0x69726573
 c9c:	6c61                	.2byte	0x6c61
 c9e:	7020                	.2byte	0x7020
 ca0:	2074726f          	jal	tp,486a6 <_ebss+0x46a7e>
 ca4:	3c28                	.2byte	0x3c28
 ca6:	6c747263          	bgeu	s0,t2,136a <_etext+0x6ae>
 caa:	2d3e                	.2byte	0x2d3e
 cac:	2946                	.2byte	0x2946
 cae:	6120                	.2byte	0x6120
 cb0:	646e                	.2byte	0x646e
 cb2:	6520                	.2byte	0x6520
 cb4:	6578                	.2byte	0x6578
 cb6:	65747563          	bgeu	s0,s7,1300 <_etext+0x644>
 cba:	000a                	.2byte	0xa
